GAS LISTING /tmp/ccbWOrdD.s 			page 1


   1              		.file	"main.cpp"
   2              		.option pic
   3              		.option norelax
   4              		.text
   5              	.Ltext0:
   6              		.align	2
   7              		.globl	_Z11userWrapperPv
   9              	_Z11userWrapperPv:
  10              	.LFB33:
  11              		.file 1 "src/main.cpp"
   1:src/main.cpp  **** #include "../lib/console.h"
   2:src/main.cpp  **** #include "../h/MemoryAllocator.hpp"
   3:src/main.cpp  **** #include "../h/SyscallC.hpp"
   4:src/main.cpp  **** #include "../h/riscv.hpp"
   5:src/main.cpp  **** #include "../h/tcb.hpp"
   6:src/main.cpp  **** 
   7:src/main.cpp  **** thread_t mainThread;
   8:src/main.cpp  **** thread_t userMainThread;
   9:src/main.cpp  **** 
  10:src/main.cpp  **** extern void userMain();
  11:src/main.cpp  **** 
  12:src/main.cpp  **** void userWrapper(void*) {
  12              		.loc 1 12 25
  13              		.cfi_startproc
  14 0000 130101FF 		addi	sp,sp,-16
  15              		.cfi_def_cfa_offset 16
  16 0004 23341100 		sd	ra,8(sp)
  17 0008 23308100 		sd	s0,0(sp)
  18              		.cfi_offset 1, -8
  19              		.cfi_offset 8, -16
  20 000c 13040101 		addi	s0,sp,16
  21              		.cfi_def_cfa 8, 0
  13:src/main.cpp  ****     userMain();
  22              		.loc 1 13 5
  23              		.loc 1 13 13 is_stmt 0
  24 0010 97000000 		call	_Z8userMainv@plt
  24      E7800000 
  25              	.LVL0:
  14:src/main.cpp  **** }
  26              		.loc 1 14 1
  27 0018 83308100 		ld	ra,8(sp)
  28              		.cfi_restore 1
  29 001c 03340100 		ld	s0,0(sp)
  30              		.cfi_restore 8
  31              		.cfi_def_cfa 2, 16
  32 0020 13010101 		addi	sp,sp,16
  33              		.cfi_def_cfa_offset 0
  34 0024 67800000 		jr	ra
  35              		.cfi_endproc
  36              	.LFE33:
  38              		.align	2
  39              		.globl	main
  41              	main:
  42              	.LFB34:
  15:src/main.cpp  **** 
  16:src/main.cpp  **** int main(){
  43              		.loc 1 16 11 is_stmt 1
GAS LISTING /tmp/ccbWOrdD.s 			page 2


  44              		.cfi_startproc
  45 0028 130101FE 		addi	sp,sp,-32
  46              		.cfi_def_cfa_offset 32
  47 002c 233C1100 		sd	ra,24(sp)
  48 0030 23388100 		sd	s0,16(sp)
  49 0034 23349100 		sd	s1,8(sp)
  50              		.cfi_offset 1, -8
  51              		.cfi_offset 8, -16
  52              		.cfi_offset 9, -24
  53 0038 13040102 		addi	s0,sp,32
  54              		.cfi_def_cfa 8, 0
  17:src/main.cpp  **** 
  18:src/main.cpp  ****     Riscv::writeStvec((uint64)&Riscv::supervisorTrap);
  55              		.loc 1 18 5
  56              		.loc 1 18 22 is_stmt 0
  57 003c 97070000 		la	a5,_ZN5Riscv14supervisorTrapEv
  57      83B70700 
  58              	.LVL1:
  59              	.LBB6:
  60              	.LBB7:
  61              		.file 2 "src/../h/riscv.hpp"
   1:src/../h/riscv.hpp **** 
   2:src/../h/riscv.hpp **** 
   3:src/../h/riscv.hpp **** #ifndef PROJECT_BASE_V1_1_RISCV_HPP
   4:src/../h/riscv.hpp **** #define PROJECT_BASE_V1_1_RISCV_HPP
   5:src/../h/riscv.hpp **** 
   6:src/../h/riscv.hpp **** 
   7:src/../h/riscv.hpp **** 
   8:src/../h/riscv.hpp **** #include "../lib/hw.h"
   9:src/../h/riscv.hpp **** #include "../lib/console.h"
  10:src/../h/riscv.hpp **** #include "../h/MemoryAllocator.hpp"
  11:src/../h/riscv.hpp **** #include "../h/SyscallC.hpp"
  12:src/../h/riscv.hpp **** 
  13:src/../h/riscv.hpp **** class Riscv{
  14:src/../h/riscv.hpp **** 
  15:src/../h/riscv.hpp **** public:
  16:src/../h/riscv.hpp **** 
  17:src/../h/riscv.hpp ****     enum class InterruptType : uint64 {
  18:src/../h/riscv.hpp ****         SOFTWARE = 0x8000000000000001UL,
  19:src/../h/riscv.hpp ****         EXTERNAL = 0x8000000000000009UL,
  20:src/../h/riscv.hpp ****         U_ECALL  = 0x8UL,
  21:src/../h/riscv.hpp ****         S_ECALL  = 0x9UL
  22:src/../h/riscv.hpp ****     };
  23:src/../h/riscv.hpp **** 
  24:src/../h/riscv.hpp ****     static void supervisorTrap();
  25:src/../h/riscv.hpp ****     static void interruptHandler();
  26:src/../h/riscv.hpp ****     static void push();  //gura registre na stek
  27:src/../h/riscv.hpp ****     static void pop();  //vraca registre sa steka
  28:src/../h/riscv.hpp **** 
  29:src/../h/riscv.hpp ****     static void popSppSpie();  //skida bitove spp i spie u registar sstatus
  30:src/../h/riscv.hpp **** 
  31:src/../h/riscv.hpp ****     static uint64 readScause();  //cita vr registra scause koji nam govori uzrok trenutnog prekida
  32:src/../h/riscv.hpp ****     static void writeScause(uint64 scause);
  33:src/../h/riscv.hpp ****     static uint64 readSepc();  //cita vr registra sepc koji cuva trenutnu vr pc kada je doslo do pr
  34:src/../h/riscv.hpp ****     static void writeSepc(uint64 sepc);
  35:src/../h/riscv.hpp ****     static uint64 readStvec();      //cita vr iz registra stvec koji cuva adresu rutine koja obradj
  36:src/../h/riscv.hpp ****     static void writeStvec(uint64 stvec);
GAS LISTING /tmp/ccbWOrdD.s 			page 3


  37:src/../h/riscv.hpp **** 
  38:src/../h/riscv.hpp ****     enum BitMaskSip
  39:src/../h/riscv.hpp ****     {
  40:src/../h/riscv.hpp ****         SIP_SSIP = (1 << 1),
  41:src/../h/riscv.hpp ****         SIP_SEIP = (1 << 9),   //bit koji oznacava da je eksterni prekid u supervisor rezimu na cek
  42:src/../h/riscv.hpp ****     };
  43:src/../h/riscv.hpp **** 
  44:src/../h/riscv.hpp ****     //sip registar cuva informacije o tome koji su prekidi na cekanju u supervisor rezimu
  45:src/../h/riscv.hpp **** 
  46:src/../h/riscv.hpp ****     static void setSip(uint64 mask);  //postavlja odredjene bitove u sip registar na osnovu maske
  47:src/../h/riscv.hpp ****     static void clearSip(uint64 mask);  //brise odredjene bitove iz sip registra na osnovu maske
  48:src/../h/riscv.hpp ****     static uint64 readSip();
  49:src/../h/riscv.hpp ****     static void writeSip(uint64 sip);
  50:src/../h/riscv.hpp **** 
  51:src/../h/riscv.hpp ****     enum BitMaskSstatus
  52:src/../h/riscv.hpp ****     {
  53:src/../h/riscv.hpp ****         SSTATUS_SIE = (1 << 1),    //govori da li su prekidi u supervisorModu dozvoljeni
  54:src/../h/riscv.hpp ****         SSTATUS_SPIE = (1 << 5),   //cuva prethodno stanje sie prije nego sto se preslo na supervis
  55:src/../h/riscv.hpp ****         SSTATUS_SPP = (1 << 8),    //cuva prethodni privilegijski nivo 0-user 1-supervisorMode
  56:src/../h/riscv.hpp ****     };
  57:src/../h/riscv.hpp **** 
  58:src/../h/riscv.hpp ****     static void setSstatus(uint64 mask);
  59:src/../h/riscv.hpp ****     static void clearSstatus(uint64 mask);
  60:src/../h/riscv.hpp ****     static uint64 readSstatus();
  61:src/../h/riscv.hpp ****     static void writeSstatus(uint64 sstatus);
  62:src/../h/riscv.hpp **** 
  63:src/../h/riscv.hpp **** 
  64:src/../h/riscv.hpp **** 
  65:src/../h/riscv.hpp **** };
  66:src/../h/riscv.hpp **** 
  67:src/../h/riscv.hpp **** inline uint64 Riscv::readScause() {
  68:src/../h/riscv.hpp ****     uint64 volatile value;
  69:src/../h/riscv.hpp ****     __asm__ volatile ("csrr %0, scause" : "=r"(value));
  70:src/../h/riscv.hpp ****     return value;
  71:src/../h/riscv.hpp **** }
  72:src/../h/riscv.hpp **** 
  73:src/../h/riscv.hpp **** inline void Riscv::writeScause(uint64 value) {
  74:src/../h/riscv.hpp ****     __asm__ volatile ("csrw scause, %0" : : "r"(value));
  75:src/../h/riscv.hpp **** }
  76:src/../h/riscv.hpp **** 
  77:src/../h/riscv.hpp **** inline uint64 Riscv::readSepc() {
  78:src/../h/riscv.hpp ****     uint64 volatile value;
  79:src/../h/riscv.hpp ****     __asm__ volatile ("csrr %0, sepc" : "=r"(value));
  80:src/../h/riscv.hpp ****     return value;
  81:src/../h/riscv.hpp **** }
  82:src/../h/riscv.hpp **** 
  83:src/../h/riscv.hpp **** inline void Riscv::writeSepc(uint64 value) {
  84:src/../h/riscv.hpp ****     __asm__ volatile ("csrw sepc, %0" : : "r"(value));
  85:src/../h/riscv.hpp **** }
  86:src/../h/riscv.hpp **** 
  87:src/../h/riscv.hpp **** inline uint64 Riscv::readStvec() {
  88:src/../h/riscv.hpp ****     uint64 volatile value;
  89:src/../h/riscv.hpp ****     __asm__ volatile ("csrr %0, stvec" : "=r"(value));
  90:src/../h/riscv.hpp ****     return value;
  91:src/../h/riscv.hpp **** }
  92:src/../h/riscv.hpp **** 
  93:src/../h/riscv.hpp **** inline void Riscv::writeStvec(uint64 value) {
GAS LISTING /tmp/ccbWOrdD.s 			page 4


  94:src/../h/riscv.hpp ****     __asm__ volatile ("csrw stvec, %0" : : "r"(value));
  62              		.loc 2 94 5 is_stmt 1
  63              		.loc 2 94 55 is_stmt 0
  64              	#APP
  65              	# 94 "src/../h/riscv.hpp" 1
  95              	}
  66              		csrw stvec, a5
  67              	# 0 "" 2
  68              	.LVL2:
  69              	#NO_APP
  70              	.LBE7:
  71              	.LBE6:
  19:src/main.cpp  ****     MemoryAllocator::mem_init();
  72              		.loc 1 19 5 is_stmt 1
  73              		.loc 1 19 30 is_stmt 0
  74 0048 97000000 		call	_ZN15MemoryAllocator8mem_initEv@plt
  74      E7800000 
  75              	.LVL3:
  20:src/main.cpp  **** 
  21:src/main.cpp  ****     thread_create(&mainThread, nullptr, nullptr); // main
  76              		.loc 1 21 5 is_stmt 1
  77              		.loc 1 21 18 is_stmt 0
  78 0050 97040000 		lla	s1,.LANCHOR0
  78      93840400 
  79 0058 13060000 		li	a2,0
  80 005c 93050000 		li	a1,0
  81 0060 13850400 		mv	a0,s1
  82 0064 97000000 		call	_Z13thread_createPP3TCBPFvPvES2_@plt
  82      E7800000 
  83              	.LVL4:
  22:src/main.cpp  ****     TCB::running = mainThread;
  84              		.loc 1 22 5 is_stmt 1
  85              		.loc 1 22 18 is_stmt 0
  86 006c 03B70400 		ld	a4,0(s1)
  87 0070 97070000 		la	a5,_ZN3TCB7runningE
  87      83B70700 
  88 0078 23B0E700 		sd	a4,0(a5)
  23:src/main.cpp  **** 
  24:src/main.cpp  ****     thread_create(&userMainThread, userWrapper, nullptr);
  89              		.loc 1 24 5 is_stmt 1
  90              		.loc 1 24 18 is_stmt 0
  91 007c 13060000 		li	a2,0
  92 0080 97050000 		lla	a1,_Z11userWrapperPv
  92      93850500 
  93 0088 17050000 		lla	a0,.LANCHOR0+8
  93      13050500 
  94 0090 97000000 		call	_Z13thread_createPP3TCBPFvPvES2_@plt
  94      E7800000 
  95              	.LVL5:
  96              	.L5:
  25:src/main.cpp  **** 
  26:src/main.cpp  ****     while (!userMainThread->isFinished()) thread_dispatch();
  97              		.loc 1 26 5 is_stmt 1 discriminator 2
  98              		.loc 1 26 12 discriminator 2
  99              		.loc 1 26 39 is_stmt 0 discriminator 2
 100 0098 97070000 		ld	a5,.LANCHOR0+8
 100      83B70700 
GAS LISTING /tmp/ccbWOrdD.s 			page 5


 101              	.LVL6:
 102              	.LBB8:
 103              	.LBB9:
 104              		.file 3 "src/../h/tcb.hpp"
   1:src/../h/tcb.hpp **** 
   2:src/../h/tcb.hpp **** 
   3:src/../h/tcb.hpp **** #ifndef PROJECT_BASE_V1_1_TCB_HPP
   4:src/../h/tcb.hpp **** #define PROJECT_BASE_V1_1_TCB_HPP
   5:src/../h/tcb.hpp **** 
   6:src/../h/tcb.hpp **** 
   7:src/../h/tcb.hpp **** #include "../lib/hw.h"
   8:src/../h/tcb.hpp **** #include "Scheduler.hpp"
   9:src/../h/tcb.hpp **** #include "MemoryAllocator.hpp"
  10:src/../h/tcb.hpp **** #include "riscv.hpp"
  11:src/../h/tcb.hpp **** 
  12:src/../h/tcb.hpp **** 
  13:src/../h/tcb.hpp **** using body=void(*)(void*);
  14:src/../h/tcb.hpp **** 
  15:src/../h/tcb.hpp **** class TCB{
  16:src/../h/tcb.hpp **** 
  17:src/../h/tcb.hpp **** private:
  18:src/../h/tcb.hpp **** 
  19:src/../h/tcb.hpp ****     TCB(body routine, void* arg, void * stack);
  20:src/../h/tcb.hpp **** 
  21:src/../h/tcb.hpp ****     struct Context{
  22:src/../h/tcb.hpp ****         uint64 ra;
  23:src/../h/tcb.hpp ****         uint64 sp;
  24:src/../h/tcb.hpp ****     };
  25:src/../h/tcb.hpp **** 
  26:src/../h/tcb.hpp **** 
  27:src/../h/tcb.hpp ****     uint64 t_ID;
  28:src/../h/tcb.hpp ****     body routine;
  29:src/../h/tcb.hpp ****     uint64* stack;
  30:src/../h/tcb.hpp ****     void* arg;
  31:src/../h/tcb.hpp ****     Context context;
  32:src/../h/tcb.hpp ****     bool finished;
  33:src/../h/tcb.hpp ****     bool blocked;
  34:src/../h/tcb.hpp **** 
  35:src/../h/tcb.hpp ****     friend class riscv;
  36:src/../h/tcb.hpp **** 
  37:src/../h/tcb.hpp ****     static void threadWrapper();
  38:src/../h/tcb.hpp **** 
  39:src/../h/tcb.hpp ****     static void contextSwitch(Context *oldContext, Context *runningContext);
  40:src/../h/tcb.hpp **** 
  41:src/../h/tcb.hpp **** public:
  42:src/../h/tcb.hpp **** 
  43:src/../h/tcb.hpp ****     friend class Sem;
  44:src/../h/tcb.hpp ****     static int id;
  45:src/../h/tcb.hpp ****     static TCB* running;
  46:src/../h/tcb.hpp **** 
  47:src/../h/tcb.hpp ****     bool isFinished()  { return finished; }
 105              		.loc 3 47 26 is_stmt 1 discriminator 2
 106              		.loc 3 47 33 is_stmt 0 discriminator 2
 107 00a0 83C70703 		lbu	a5,48(a5)
 108              	.LVL7:
 109              	.LBE9:
 110              	.LBE8:
GAS LISTING /tmp/ccbWOrdD.s 			page 6


 111              		.loc 1 26 12 discriminator 2
 112 00a4 63980700 		bnez	a5,.L4
 113              		.loc 1 26 43 is_stmt 1 discriminator 1
 114              		.loc 1 26 58 is_stmt 0 discriminator 1
 115 00a8 97000000 		call	_Z15thread_dispatchv@plt
 115      E7800000 
 116              	.LVL8:
 117              		.loc 1 26 5 discriminator 1
 118 00b0 6FF09FFE 		j	.L5
 119              	.L4:
  27:src/main.cpp  **** 
  28:src/main.cpp  ****     return 0;
 120              		.loc 1 28 5 is_stmt 1
  29:src/main.cpp  **** }
 121              		.loc 1 29 1 is_stmt 0
 122 00b4 13050000 		li	a0,0
 123 00b8 83308101 		ld	ra,24(sp)
 124              		.cfi_restore 1
 125 00bc 03340101 		ld	s0,16(sp)
 126              		.cfi_restore 8
 127              		.cfi_def_cfa 2, 32
 128 00c0 83348100 		ld	s1,8(sp)
 129              		.cfi_restore 9
 130 00c4 13010102 		addi	sp,sp,32
 131              		.cfi_def_cfa_offset 0
 132 00c8 67800000 		jr	ra
 133              		.cfi_endproc
 134              	.LFE34:
 136              		.globl	userMainThread
 137              		.globl	mainThread
 138              		.bss
 139              		.align	3
 140              		.set	.LANCHOR0,. + 0
 143              	mainThread:
 144 0000 00000000 		.zero	8
 144      00000000 
 147              	userMainThread:
 148 0008 00000000 		.zero	8
 148      00000000 
 149              		.text
 150              	.Letext0:
 151              		.file 4 "src/../h/../lib/hw.h"
 152              		.file 5 "src/../h/MemoryAllocator.hpp"
 153              		.file 6 "src/../h/SyscallC.hpp"
GAS LISTING /tmp/ccbWOrdD.s 			page 7

