GAS LISTING /tmp/cc0mbFBd.s 			page 1


   1              		.file	"Scheduler.cpp"
   2              		.option pic
   3              		.option norelax
   4              		.text
   5              	.Ltext0:
   6              		.align	2
   8              	_Z41__static_initialization_and_destruction_0ii:
   9              	.LFB47:
  10              		.file 1 "src/Scheduler.cpp"
   1:src/Scheduler.cpp **** #include "../h/Scheduler.hpp"
   2:src/Scheduler.cpp **** 
   3:src/Scheduler.cpp **** 
   4:src/Scheduler.cpp **** List<TCB> Scheduler::ready;
   5:src/Scheduler.cpp **** 
   6:src/Scheduler.cpp **** TCB* Scheduler::get(){
   7:src/Scheduler.cpp ****     return ready.removeFirst();
   8:src/Scheduler.cpp **** }
   9:src/Scheduler.cpp **** 
  10:src/Scheduler.cpp **** void Scheduler::put(TCB *thread){
  11:src/Scheduler.cpp ****     ready.addLast(thread);
  12:src/Scheduler.cpp **** }
  13:src/Scheduler.cpp **** 
  14:src/Scheduler.cpp **** void *Scheduler::operator new(size_t size) {
  15:src/Scheduler.cpp ****     size_t numOfBlocks=(size + sizeof(MemoryAllocator::FullBlock) + MEM_BLOCK_SIZE - 1) / MEM_BLOCK
  16:src/Scheduler.cpp ****     return MemoryAllocator::mem_alloc(numOfBlocks);
  17:src/Scheduler.cpp **** }
  18:src/Scheduler.cpp **** 
  19:src/Scheduler.cpp **** void Scheduler::operator delete(void *ptr) {
  20:src/Scheduler.cpp ****     MemoryAllocator::mem_free(ptr);
  21:src/Scheduler.cpp **** }...
  11              		.loc 1 21 1
  12              		.cfi_startproc
  13              	.LVL0:
  14 0000 130101FF 		addi	sp,sp,-16
  15              		.cfi_def_cfa_offset 16
  16 0004 23348100 		sd	s0,8(sp)
  17              		.cfi_offset 8, -8
  18 0008 13040101 		addi	s0,sp,16
  19              		.cfi_def_cfa 8, 0
  20              		.loc 1 21 1 is_stmt 0
  21 000c 93071000 		li	a5,1
  22 0010 6308F500 		beq	a0,a5,.L4
  23              	.L1:
  24 0014 03348100 		ld	s0,8(sp)
  25              		.cfi_remember_state
  26              		.cfi_restore 8
  27              		.cfi_def_cfa 2, 16
  28 0018 13010101 		addi	sp,sp,16
  29              		.cfi_def_cfa_offset 0
  30 001c 67800000 		jr	ra
  31              	.L4:
  32              		.cfi_restore_state
  33              		.loc 1 21 1 discriminator 1
  34 0020 B7070100 		li	a5,65536
  35 0024 9387F7FF 		addi	a5,a5,-1
  36 0028 E396F5FE 		bne	a1,a5,.L1
  37              	.LVL1:
GAS LISTING /tmp/cc0mbFBd.s 			page 2


  38              	.LBB23:
  39              	.LBB24:
  40              	.LBB25:
  41              		.file 2 "src/../h/List.hpp"
   1:src/../h/List.hpp **** 
   2:src/../h/List.hpp **** 
   3:src/../h/List.hpp **** #ifndef PROJECT_BASE_V1_1_LIST_HPP
   4:src/../h/List.hpp **** #define PROJECT_BASE_V1_1_LIST_HPP
   5:src/../h/List.hpp **** 
   6:src/../h/List.hpp **** #include "MemoryAllocator.hpp"
   7:src/../h/List.hpp **** #include "../h/SyscallC.hpp"
   8:src/../h/List.hpp **** 
   9:src/../h/List.hpp **** template<typename T>
  10:src/../h/List.hpp **** class List
  11:src/../h/List.hpp **** {
  12:src/../h/List.hpp **** private:
  13:src/../h/List.hpp ****     struct Node
  14:src/../h/List.hpp ****     {
  15:src/../h/List.hpp ****         T *data;
  16:src/../h/List.hpp ****         Node *next;
  17:src/../h/List.hpp **** 
  18:src/../h/List.hpp ****         Node(T *data, Node *next) : data(data), next(next) {}
  19:src/../h/List.hpp **** 
  20:src/../h/List.hpp ****         void* operator new(size_t size) {
  21:src/../h/List.hpp ****             return MemoryAllocator::mem_alloc(size);
  22:src/../h/List.hpp ****         }
  23:src/../h/List.hpp ****         void* operator new[](size_t size) {
  24:src/../h/List.hpp ****             return MemoryAllocator::mem_alloc(size);
  25:src/../h/List.hpp ****         }
  26:src/../h/List.hpp **** 
  27:src/../h/List.hpp ****         void operator delete(void *ptr) {
  28:src/../h/List.hpp ****             MemoryAllocator::mem_free(ptr);
  29:src/../h/List.hpp ****         }
  30:src/../h/List.hpp ****         void operator delete[](void *ptr) {
  31:src/../h/List.hpp ****             MemoryAllocator::mem_free(ptr);
  32:src/../h/List.hpp ****         }
  33:src/../h/List.hpp ****     };
  34:src/../h/List.hpp **** 
  35:src/../h/List.hpp ****     Node *head, *tail;
  36:src/../h/List.hpp **** 
  37:src/../h/List.hpp **** public:
  38:src/../h/List.hpp ****     List() : head(0), tail(0) {}
  42              		.loc 2 38 29
  43 002c 97070000 		lla	a5,.LANCHOR0
  43      93870700 
  44 0034 23B00700 		sd	zero,0(a5)
  45 0038 23B40700 		sd	zero,8(a5)
  46              	.LVL2:
  47              	.LBE25:
  48              	.LBE24:
  49              	.LBE23:
  50              		.loc 1 21 1
  51 003c 6FF09FFD 		j	.L1
  52              		.cfi_endproc
  53              	.LFE47:
  55              		.align	2
  56              		.globl	_ZN9Scheduler3getEv
GAS LISTING /tmp/cc0mbFBd.s 			page 3


  58              	_ZN9Scheduler3getEv:
  59              	.LFB33:
   6:src/Scheduler.cpp ****     return ready.removeFirst();
  60              		.loc 1 6 22 is_stmt 1
  61              		.cfi_startproc
  62 0040 130101FE 		addi	sp,sp,-32
  63              		.cfi_def_cfa_offset 32
  64 0044 233C1100 		sd	ra,24(sp)
  65 0048 23388100 		sd	s0,16(sp)
  66 004c 23349100 		sd	s1,8(sp)
  67              		.cfi_offset 1, -8
  68              		.cfi_offset 8, -16
  69              		.cfi_offset 9, -24
  70 0050 13040102 		addi	s0,sp,32
  71              		.cfi_def_cfa 8, 0
   7:src/Scheduler.cpp ****     return ready.removeFirst();
  72              		.loc 1 7 5
  73              	.LVL3:
  74              	.LBB26:
  75              	.LBB27:
  39:src/../h/List.hpp **** 
  40:src/../h/List.hpp ****     List(const List<T> &) = delete;
  41:src/../h/List.hpp **** 
  42:src/../h/List.hpp ****     List<T> &operator=(const List<T> &) = delete;
  43:src/../h/List.hpp **** 
  44:src/../h/List.hpp **** 
  45:src/../h/List.hpp ****     void addLast(T *data)
  46:src/../h/List.hpp ****     {
  47:src/../h/List.hpp **** 
  48:src/../h/List.hpp ****         Node *node =new Node(data,0);
  49:src/../h/List.hpp ****         node->data = data;
  50:src/../h/List.hpp ****         node->next = nullptr;
  51:src/../h/List.hpp ****         if (tail)
  52:src/../h/List.hpp ****         {
  53:src/../h/List.hpp ****             tail->next = node;
  54:src/../h/List.hpp ****             tail = node;
  55:src/../h/List.hpp ****         } else
  56:src/../h/List.hpp ****         {
  57:src/../h/List.hpp ****             head = tail = node;
  58:src/../h/List.hpp ****         }
  59:src/../h/List.hpp ****     }
  60:src/../h/List.hpp **** 
  61:src/../h/List.hpp ****     T *removeFirst()
  62:src/../h/List.hpp ****     {
  63:src/../h/List.hpp ****         if (!head) { return 0; }
  76              		.loc 2 63 14 is_stmt 0
  77 0054 17050000 		ld	a0,.LANCHOR0
  77      03350500 
  78              		.loc 2 63 9
  79 005c 63020504 		beqz	a0,.L8
  80              	.LVL4:
  64:src/../h/List.hpp **** 
  65:src/../h/List.hpp ****         Node *node = head;
  66:src/../h/List.hpp ****         head = head->next;
  81              		.loc 2 66 22
  82 0060 83378500 		ld	a5,8(a0)
  83              		.loc 2 66 9
GAS LISTING /tmp/cc0mbFBd.s 			page 4


  84 0064 17070000 		sd	a5,.LANCHOR0,a4
  84      2330F700 
  67:src/../h/List.hpp ****         if (!head) { tail = 0; }
  85              		.loc 2 67 9
  86 006c 63840702 		beqz	a5,.L10
  87              	.L7:
  68:src/../h/List.hpp **** 
  69:src/../h/List.hpp ****         T *ret = node->data;
  88              		.loc 2 69 12
  89 0070 83340500 		ld	s1,0(a0)
  90              	.LVL5:
  91              	.LBB28:
  92              	.LBB29:
  28:src/../h/List.hpp ****         }
  93              		.loc 2 28 38
  94 0074 97000000 		call	_ZN15MemoryAllocator8mem_freeEPv@plt
  94      E7800000 
  95              	.LVL6:
  96              	.L5:
  97              	.LBE29:
  98              	.LBE28:
  99              	.LBE27:
 100              	.LBE26:
   8:src/Scheduler.cpp **** }
 101              		.loc 1 8 1
 102 007c 13850400 		mv	a0,s1
 103 0080 83308101 		ld	ra,24(sp)
 104              		.cfi_remember_state
 105              		.cfi_restore 1
 106 0084 03340101 		ld	s0,16(sp)
 107              		.cfi_restore 8
 108              		.cfi_def_cfa 2, 32
 109 0088 83348100 		ld	s1,8(sp)
 110              		.cfi_restore 9
 111 008c 13010102 		addi	sp,sp,32
 112              		.cfi_def_cfa_offset 0
 113 0090 67800000 		jr	ra
 114              	.LVL7:
 115              	.L10:
 116              		.cfi_restore_state
 117              	.LBB31:
 118              	.LBB30:
  67:src/../h/List.hpp **** 
 119              		.loc 2 67 22
 120 0094 97070000 		sd	zero,.LANCHOR0+8,a5
 120      23B00700 
 121 009c 6FF05FFD 		j	.L7
 122              	.LVL8:
 123              	.L8:
  63:src/../h/List.hpp **** 
 124              		.loc 2 63 29
 125 00a0 93040500 		mv	s1,a0
 126              	.LVL9:
 127              	.LBE30:
 128              	.LBE31:
   7:src/Scheduler.cpp ****     return ready.removeFirst();
 129              		.loc 1 7 30
GAS LISTING /tmp/cc0mbFBd.s 			page 5


 130 00a4 6FF09FFD 		j	.L5
 131              		.cfi_endproc
 132              	.LFE33:
 134              		.align	2
 135              		.globl	_ZN9Scheduler3putEP3TCB
 137              	_ZN9Scheduler3putEP3TCB:
 138              	.LFB34:
  10:src/Scheduler.cpp **** void Scheduler::put(TCB *thread){
 139              		.loc 1 10 33 is_stmt 1
 140              		.cfi_startproc
 141              	.LVL10:
 142 00a8 130101FE 		addi	sp,sp,-32
 143              		.cfi_def_cfa_offset 32
 144 00ac 233C1100 		sd	ra,24(sp)
 145 00b0 23388100 		sd	s0,16(sp)
 146 00b4 23349100 		sd	s1,8(sp)
 147              		.cfi_offset 1, -8
 148              		.cfi_offset 8, -16
 149              		.cfi_offset 9, -24
 150 00b8 13040102 		addi	s0,sp,32
 151              		.cfi_def_cfa 8, 0
 152 00bc 93040500 		mv	s1,a0
  11:src/Scheduler.cpp ****     ready.addLast(thread);
 153              		.loc 1 11 5
 154              	.LVL11:
 155              	.LBB32:
 156              	.LBB33:
 157              	.LBB34:
 158              	.LBB35:
  21:src/../h/List.hpp ****         }
 159              		.loc 2 21 46 is_stmt 0
 160 00c0 13050001 		li	a0,16
 161              	.LVL12:
 162 00c4 97000000 		call	_ZN15MemoryAllocator9mem_allocEm@plt
 162      E7800000 
 163              	.LVL13:
 164              	.LBE35:
 165              	.LBE34:
 166              	.LBB36:
 167              	.LBB37:
  18:src/../h/List.hpp **** 
 168              		.loc 2 18 58
 169 00cc 23309500 		sd	s1,0(a0)
 170 00d0 23340500 		sd	zero,8(a0)
 171              	.LVL14:
 172              	.LBE37:
 173              	.LBE36:
  51:src/../h/List.hpp ****         {
 174              		.loc 2 51 13
 175 00d4 97070000 		ld	a5,.LANCHOR0+8
 175      83B70700 
  51:src/../h/List.hpp ****         {
 176              		.loc 2 51 9
 177 00dc 63820702 		beqz	a5,.L12
  53:src/../h/List.hpp ****             tail = node;
 178              		.loc 2 53 13
 179 00e0 23B4A700 		sd	a0,8(a5)
GAS LISTING /tmp/cc0mbFBd.s 			page 6


  54:src/../h/List.hpp ****         } else
 180              		.loc 2 54 13
 181 00e4 97070000 		sd	a0,.LANCHOR0+8,a5
 181      23B0A700 
 182              	.LVL15:
 183              	.L11:
 184              	.LBE33:
 185              	.LBE32:
  12:src/Scheduler.cpp **** }
 186              		.loc 1 12 1
 187 00ec 83308101 		ld	ra,24(sp)
 188              		.cfi_remember_state
 189              		.cfi_restore 1
 190 00f0 03340101 		ld	s0,16(sp)
 191              		.cfi_restore 8
 192              		.cfi_def_cfa 2, 32
 193 00f4 83348100 		ld	s1,8(sp)
 194              		.cfi_restore 9
 195              	.LVL16:
 196 00f8 13010102 		addi	sp,sp,32
 197              		.cfi_def_cfa_offset 0
 198 00fc 67800000 		jr	ra
 199              	.LVL17:
 200              	.L12:
 201              		.cfi_restore_state
 202              	.LBB39:
 203              	.LBB38:
  57:src/../h/List.hpp ****         }
 204              		.loc 2 57 13
 205 0100 97070000 		lla	a5,.LANCHOR0
 205      93870700 
 206 0108 23B4A700 		sd	a0,8(a5)
 207 010c 23B0A700 		sd	a0,0(a5)
 208              	.LVL18:
 209              	.LBE38:
 210              	.LBE39:
  12:src/Scheduler.cpp **** }
 211              		.loc 1 12 1
 212 0110 6FF0DFFD 		j	.L11
 213              		.cfi_endproc
 214              	.LFE34:
 216              		.align	2
 217              		.globl	_ZN9SchedulernwEm
 219              	_ZN9SchedulernwEm:
 220              	.LFB35:
  14:src/Scheduler.cpp **** void *Scheduler::operator new(size_t size) {
 221              		.loc 1 14 44 is_stmt 1
 222              		.cfi_startproc
 223              	.LVL19:
 224 0114 130101FF 		addi	sp,sp,-16
 225              		.cfi_def_cfa_offset 16
 226 0118 23341100 		sd	ra,8(sp)
 227 011c 23308100 		sd	s0,0(sp)
 228              		.cfi_offset 1, -8
 229              		.cfi_offset 8, -16
 230 0120 13040101 		addi	s0,sp,16
 231              		.cfi_def_cfa 8, 0
GAS LISTING /tmp/cc0mbFBd.s 			page 7


  15:src/Scheduler.cpp ****     size_t numOfBlocks=(size + sizeof(MemoryAllocator::FullBlock) + MEM_BLOCK_SIZE - 1) / MEM_BLOCK
 232              		.loc 1 15 5
  15:src/Scheduler.cpp ****     size_t numOfBlocks=(size + sizeof(MemoryAllocator::FullBlock) + MEM_BLOCK_SIZE - 1) / MEM_BLOCK
 233              		.loc 1 15 84 is_stmt 0
 234 0124 13057505 		addi	a0,a0,87
 235              	.LVL20:
  16:src/Scheduler.cpp ****     return MemoryAllocator::mem_alloc(numOfBlocks);
 236              		.loc 1 16 5 is_stmt 1
  16:src/Scheduler.cpp ****     return MemoryAllocator::mem_alloc(numOfBlocks);
 237              		.loc 1 16 38 is_stmt 0
 238 0128 13556500 		srli	a0,a0,6
 239              	.LVL21:
 240 012c 97000000 		call	_ZN15MemoryAllocator9mem_allocEm@plt
 240      E7800000 
 241              	.LVL22:
  17:src/Scheduler.cpp **** }
 242              		.loc 1 17 1
 243 0134 83308100 		ld	ra,8(sp)
 244              		.cfi_restore 1
 245 0138 03340100 		ld	s0,0(sp)
 246              		.cfi_restore 8
 247              		.cfi_def_cfa 2, 16
 248 013c 13010101 		addi	sp,sp,16
 249              		.cfi_def_cfa_offset 0
 250 0140 67800000 		jr	ra
 251              		.cfi_endproc
 252              	.LFE35:
 254              		.align	2
 255              		.globl	_ZN9SchedulerdlEPv
 257              	_ZN9SchedulerdlEPv:
 258              	.LFB36:
  19:src/Scheduler.cpp **** void Scheduler::operator delete(void *ptr) {
 259              		.loc 1 19 44 is_stmt 1
 260              		.cfi_startproc
 261              	.LVL23:
 262 0144 130101FF 		addi	sp,sp,-16
 263              		.cfi_def_cfa_offset 16
 264 0148 23341100 		sd	ra,8(sp)
 265 014c 23308100 		sd	s0,0(sp)
 266              		.cfi_offset 1, -8
 267              		.cfi_offset 8, -16
 268 0150 13040101 		addi	s0,sp,16
 269              		.cfi_def_cfa 8, 0
  20:src/Scheduler.cpp ****     MemoryAllocator::mem_free(ptr);
 270              		.loc 1 20 5
  20:src/Scheduler.cpp ****     MemoryAllocator::mem_free(ptr);
 271              		.loc 1 20 30 is_stmt 0
 272 0154 97000000 		call	_ZN15MemoryAllocator8mem_freeEPv@plt
 272      E7800000 
 273              	.LVL24:
 274              		.loc 1 21 1
 275 015c 83308100 		ld	ra,8(sp)
 276              		.cfi_restore 1
 277 0160 03340100 		ld	s0,0(sp)
 278              		.cfi_restore 8
 279              		.cfi_def_cfa 2, 16
 280 0164 13010101 		addi	sp,sp,16
GAS LISTING /tmp/cc0mbFBd.s 			page 8


 281              		.cfi_def_cfa_offset 0
 282 0168 67800000 		jr	ra
 283              		.cfi_endproc
 284              	.LFE36:
 286              		.align	2
 288              	_GLOBAL__sub_I__ZN9Scheduler5readyE:
 289              	.LFB48:
 290              		.loc 1 21 1 is_stmt 1
 291              		.cfi_startproc
 292 016c 130101FF 		addi	sp,sp,-16
 293              		.cfi_def_cfa_offset 16
 294 0170 23341100 		sd	ra,8(sp)
 295 0174 23308100 		sd	s0,0(sp)
 296              		.cfi_offset 1, -8
 297              		.cfi_offset 8, -16
 298 0178 13040101 		addi	s0,sp,16
 299              		.cfi_def_cfa 8, 0
 300              		.loc 1 21 1 is_stmt 0
 301 017c B7050100 		li	a1,65536
 302 0180 9385F5FF 		addi	a1,a1,-1
 303 0184 13051000 		li	a0,1
 304 0188 97000000 		call	_Z41__static_initialization_and_destruction_0ii
 304      E7800000 
 305              	.LVL25:
 306 0190 83308100 		ld	ra,8(sp)
 307              		.cfi_restore 1
 308 0194 03340100 		ld	s0,0(sp)
 309              		.cfi_restore 8
 310              		.cfi_def_cfa 2, 16
 311 0198 13010101 		addi	sp,sp,16
 312              		.cfi_def_cfa_offset 0
 313 019c 67800000 		jr	ra
 314              		.cfi_endproc
 315              	.LFE48:
 317              		.section	.init_array,"aw"
 318              		.align	3
 319 0000 00000000 		.dword	_GLOBAL__sub_I__ZN9Scheduler5readyE
 319      00000000 
 320              		.globl	_ZN9Scheduler5readyE
 321              		.bss
 322              		.align	3
 323              		.set	.LANCHOR0,. + 0
 326              	_ZN9Scheduler5readyE:
 327 0000 00000000 		.zero	16
 327      00000000 
 327      00000000 
 327      00000000 
 328              		.text
 329              	.Letext0:
 330              		.file 3 "src/../h/../lib/hw.h"
 331              		.file 4 "src/../h/MemoryAllocator.hpp"
 332              		.file 5 "src/../h/tcb.hpp"
 333              		.file 6 "src/../h/Scheduler.hpp"
GAS LISTING /tmp/cc0mbFBd.s 			page 9


DEFINED SYMBOLS
                            *ABS*:0000000000000000 Scheduler.cpp
     /tmp/cc0mbFBd.s:8      .text:0000000000000000 _Z41__static_initialization_and_destruction_0ii
     /tmp/cc0mbFBd.s:12     .text:0000000000000000 .L0 
     /tmp/cc0mbFBd.s:14     .text:0000000000000000 .L0 
     /tmp/cc0mbFBd.s:15     .text:0000000000000004 .L0 
     /tmp/cc0mbFBd.s:17     .text:0000000000000008 .L0 
     /tmp/cc0mbFBd.s:19     .text:000000000000000c .L0 
     /tmp/cc0mbFBd.s:21     .text:000000000000000c .L0 
     /tmp/cc0mbFBd.s:25     .text:0000000000000018 .L0 
     /tmp/cc0mbFBd.s:26     .text:0000000000000018 .L0 
     /tmp/cc0mbFBd.s:27     .text:0000000000000018 .L0 
     /tmp/cc0mbFBd.s:29     .text:000000000000001c .L0 
     /tmp/cc0mbFBd.s:32     .text:0000000000000020 .L0 
     /tmp/cc0mbFBd.s:34     .text:0000000000000020 .L0 
     /tmp/cc0mbFBd.s:43     .text:000000000000002c .L0 
     /tmp/cc0mbFBd.s:51     .text:000000000000003c .L0 
     /tmp/cc0mbFBd.s:52     .text:0000000000000040 .L0 
     /tmp/cc0mbFBd.s:58     .text:0000000000000040 _ZN9Scheduler3getEv
     /tmp/cc0mbFBd.s:61     .text:0000000000000040 .L0 
     /tmp/cc0mbFBd.s:62     .text:0000000000000040 .L0 
     /tmp/cc0mbFBd.s:63     .text:0000000000000044 .L0 
     /tmp/cc0mbFBd.s:67     .text:0000000000000050 .L0 
     /tmp/cc0mbFBd.s:68     .text:0000000000000050 .L0 
     /tmp/cc0mbFBd.s:69     .text:0000000000000050 .L0 
     /tmp/cc0mbFBd.s:71     .text:0000000000000054 .L0 
     /tmp/cc0mbFBd.s:76     .text:0000000000000054 .L0 
     /tmp/cc0mbFBd.s:77     .text:0000000000000054 .L0 
     /tmp/cc0mbFBd.s:79     .text:000000000000005c .L0 
     /tmp/cc0mbFBd.s:82     .text:0000000000000060 .L0 
     /tmp/cc0mbFBd.s:84     .text:0000000000000064 .L0 
     /tmp/cc0mbFBd.s:86     .text:000000000000006c .L0 
     /tmp/cc0mbFBd.s:89     .text:0000000000000070 .L0 
     /tmp/cc0mbFBd.s:94     .text:0000000000000074 .L0 
     /tmp/cc0mbFBd.s:102    .text:000000000000007c .L0 
     /tmp/cc0mbFBd.s:104    .text:0000000000000084 .L0 
     /tmp/cc0mbFBd.s:105    .text:0000000000000084 .L0 
     /tmp/cc0mbFBd.s:107    .text:0000000000000088 .L0 
     /tmp/cc0mbFBd.s:108    .text:0000000000000088 .L0 
     /tmp/cc0mbFBd.s:110    .text:000000000000008c .L0 
     /tmp/cc0mbFBd.s:112    .text:0000000000000090 .L0 
     /tmp/cc0mbFBd.s:116    .text:0000000000000094 .L0 
     /tmp/cc0mbFBd.s:120    .text:0000000000000094 .L0 
     /tmp/cc0mbFBd.s:125    .text:00000000000000a0 .L0 
     /tmp/cc0mbFBd.s:130    .text:00000000000000a4 .L0 
     /tmp/cc0mbFBd.s:131    .text:00000000000000a8 .L0 
     /tmp/cc0mbFBd.s:137    .text:00000000000000a8 _ZN9Scheduler3putEP3TCB
     /tmp/cc0mbFBd.s:140    .text:00000000000000a8 .L0 
     /tmp/cc0mbFBd.s:142    .text:00000000000000a8 .L0 
     /tmp/cc0mbFBd.s:143    .text:00000000000000ac .L0 
     /tmp/cc0mbFBd.s:147    .text:00000000000000b8 .L0 
     /tmp/cc0mbFBd.s:148    .text:00000000000000b8 .L0 
     /tmp/cc0mbFBd.s:149    .text:00000000000000b8 .L0 
     /tmp/cc0mbFBd.s:151    .text:00000000000000bc .L0 
     /tmp/cc0mbFBd.s:159    .text:00000000000000c0 .L0 
     /tmp/cc0mbFBd.s:160    .text:00000000000000c0 .L0 
     /tmp/cc0mbFBd.s:169    .text:00000000000000cc .L0 
GAS LISTING /tmp/cc0mbFBd.s 			page 10


     /tmp/cc0mbFBd.s:175    .text:00000000000000d4 .L0 
     /tmp/cc0mbFBd.s:177    .text:00000000000000dc .L0 
     /tmp/cc0mbFBd.s:179    .text:00000000000000e0 .L0 
     /tmp/cc0mbFBd.s:181    .text:00000000000000e4 .L0 
     /tmp/cc0mbFBd.s:187    .text:00000000000000ec .L0 
     /tmp/cc0mbFBd.s:188    .text:00000000000000f0 .L0 
     /tmp/cc0mbFBd.s:189    .text:00000000000000f0 .L0 
     /tmp/cc0mbFBd.s:191    .text:00000000000000f4 .L0 
     /tmp/cc0mbFBd.s:192    .text:00000000000000f4 .L0 
     /tmp/cc0mbFBd.s:194    .text:00000000000000f8 .L0 
     /tmp/cc0mbFBd.s:197    .text:00000000000000fc .L0 
     /tmp/cc0mbFBd.s:201    .text:0000000000000100 .L0 
     /tmp/cc0mbFBd.s:205    .text:0000000000000100 .L0 
     /tmp/cc0mbFBd.s:212    .text:0000000000000110 .L0 
     /tmp/cc0mbFBd.s:213    .text:0000000000000114 .L0 
     /tmp/cc0mbFBd.s:219    .text:0000000000000114 _ZN9SchedulernwEm
     /tmp/cc0mbFBd.s:222    .text:0000000000000114 .L0 
     /tmp/cc0mbFBd.s:224    .text:0000000000000114 .L0 
     /tmp/cc0mbFBd.s:225    .text:0000000000000118 .L0 
     /tmp/cc0mbFBd.s:228    .text:0000000000000120 .L0 
     /tmp/cc0mbFBd.s:229    .text:0000000000000120 .L0 
     /tmp/cc0mbFBd.s:231    .text:0000000000000124 .L0 
     /tmp/cc0mbFBd.s:233    .text:0000000000000124 .L0 
     /tmp/cc0mbFBd.s:234    .text:0000000000000124 .L0 
     /tmp/cc0mbFBd.s:237    .text:0000000000000128 .L0 
     /tmp/cc0mbFBd.s:238    .text:0000000000000128 .L0 
     /tmp/cc0mbFBd.s:243    .text:0000000000000134 .L0 
     /tmp/cc0mbFBd.s:244    .text:0000000000000138 .L0 
     /tmp/cc0mbFBd.s:246    .text:000000000000013c .L0 
     /tmp/cc0mbFBd.s:247    .text:000000000000013c .L0 
     /tmp/cc0mbFBd.s:249    .text:0000000000000140 .L0 
     /tmp/cc0mbFBd.s:251    .text:0000000000000144 .L0 
     /tmp/cc0mbFBd.s:257    .text:0000000000000144 _ZN9SchedulerdlEPv
     /tmp/cc0mbFBd.s:260    .text:0000000000000144 .L0 
     /tmp/cc0mbFBd.s:262    .text:0000000000000144 .L0 
     /tmp/cc0mbFBd.s:263    .text:0000000000000148 .L0 
     /tmp/cc0mbFBd.s:266    .text:0000000000000150 .L0 
     /tmp/cc0mbFBd.s:267    .text:0000000000000150 .L0 
     /tmp/cc0mbFBd.s:269    .text:0000000000000154 .L0 
     /tmp/cc0mbFBd.s:271    .text:0000000000000154 .L0 
     /tmp/cc0mbFBd.s:272    .text:0000000000000154 .L0 
     /tmp/cc0mbFBd.s:275    .text:000000000000015c .L0 
     /tmp/cc0mbFBd.s:276    .text:0000000000000160 .L0 
     /tmp/cc0mbFBd.s:278    .text:0000000000000164 .L0 
     /tmp/cc0mbFBd.s:279    .text:0000000000000164 .L0 
     /tmp/cc0mbFBd.s:281    .text:0000000000000168 .L0 
     /tmp/cc0mbFBd.s:283    .text:000000000000016c .L0 
     /tmp/cc0mbFBd.s:288    .text:000000000000016c _GLOBAL__sub_I__ZN9Scheduler5readyE
     /tmp/cc0mbFBd.s:291    .text:000000000000016c .L0 
     /tmp/cc0mbFBd.s:292    .text:000000000000016c .L0 
     /tmp/cc0mbFBd.s:293    .text:0000000000000170 .L0 
     /tmp/cc0mbFBd.s:296    .text:0000000000000178 .L0 
     /tmp/cc0mbFBd.s:297    .text:0000000000000178 .L0 
     /tmp/cc0mbFBd.s:299    .text:000000000000017c .L0 
     /tmp/cc0mbFBd.s:301    .text:000000000000017c .L0 
     /tmp/cc0mbFBd.s:307    .text:0000000000000194 .L0 
     /tmp/cc0mbFBd.s:309    .text:0000000000000198 .L0 
GAS LISTING /tmp/cc0mbFBd.s 			page 11


     /tmp/cc0mbFBd.s:310    .text:0000000000000198 .L0 
     /tmp/cc0mbFBd.s:312    .text:000000000000019c .L0 
     /tmp/cc0mbFBd.s:314    .text:00000000000001a0 .L0 
     /tmp/cc0mbFBd.s:326    .bss:0000000000000000 _ZN9Scheduler5readyE
     /tmp/cc0mbFBd.s:323    .bss:0000000000000000 .LANCHOR0
     /tmp/cc0mbFBd.s:334    .text:00000000000001a0 .L0 
     /tmp/cc0mbFBd.s:43     .text:000000000000002c .L0 
     /tmp/cc0mbFBd.s:77     .text:0000000000000054 .L0 
     /tmp/cc0mbFBd.s:84     .text:0000000000000064 .L0 
     /tmp/cc0mbFBd.s:120    .text:0000000000000094 .L0 
     /tmp/cc0mbFBd.s:175    .text:00000000000000d4 .L0 
     /tmp/cc0mbFBd.s:181    .text:00000000000000e4 .L0 
     /tmp/cc0mbFBd.s:205    .text:0000000000000100 .L0 
     /tmp/cc0mbFBd.s:31     .text:0000000000000020 .L4
     /tmp/cc0mbFBd.s:23     .text:0000000000000014 .L1
     /tmp/cc0mbFBd.s:123    .text:00000000000000a0 .L8
     /tmp/cc0mbFBd.s:115    .text:0000000000000094 .L10
     /tmp/cc0mbFBd.s:87     .text:0000000000000070 .L7
     /tmp/cc0mbFBd.s:96     .text:000000000000007c .L5
     /tmp/cc0mbFBd.s:200    .text:0000000000000100 .L12
     /tmp/cc0mbFBd.s:183    .text:00000000000000ec .L11
     /tmp/cc0mbFBd.s:1615   .debug_abbrev:0000000000000000 .Ldebug_abbrev0
     /tmp/cc0mbFBd.s:3223   .debug_str:000000000000067a .LASF111
     /tmp/cc0mbFBd.s:3121   .debug_str:000000000000039f .LASF112
     /tmp/cc0mbFBd.s:3225   .debug_str:000000000000073e .LASF113
     /tmp/cc0mbFBd.s:5      .text:0000000000000000 .Ltext0
     /tmp/cc0mbFBd.s:329    .text:00000000000001a0 .Letext0
     /tmp/cc0mbFBd.s:3015   .debug_line:0000000000000000 .Ldebug_line0
     /tmp/cc0mbFBd.s:3117   .debug_str:0000000000000382 .LASF0
     /tmp/cc0mbFBd.s:3135   .debug_str:0000000000000406 .LASF1
     /tmp/cc0mbFBd.s:3187   .debug_str:00000000000005a7 .LASF2
     /tmp/cc0mbFBd.s:3193   .debug_str:00000000000005c4 .LASF4
     /tmp/cc0mbFBd.s:3125   .debug_str:00000000000003bb .LASF3
     /tmp/cc0mbFBd.s:3033   .debug_str:00000000000000ab .LASF5
     /tmp/cc0mbFBd.s:3175   .debug_str:000000000000055a .LASF6
     /tmp/cc0mbFBd.s:3129   .debug_str:00000000000003e9 .LASF7
     /tmp/cc0mbFBd.s:3103   .debug_str:0000000000000304 .LASF8
     /tmp/cc0mbFBd.s:3107   .debug_str:000000000000031d .LASF9
     /tmp/cc0mbFBd.s:3063   .debug_str:00000000000001d1 .LASF10
     /tmp/cc0mbFBd.s:3097   .debug_str:00000000000002e6 .LASF11
     /tmp/cc0mbFBd.s:3075   .debug_str:000000000000021f .LASF12
     /tmp/cc0mbFBd.s:3061   .debug_str:00000000000001c1 .LASF13
     /tmp/cc0mbFBd.s:3209   .debug_str:000000000000061d .LASF14
     /tmp/cc0mbFBd.s:3089   .debug_str:0000000000000297 .LASF15
     /tmp/cc0mbFBd.s:3201   .debug_str:00000000000005e2 .LASF16
     /tmp/cc0mbFBd.s:3169   .debug_str:0000000000000532 .LASF31
     /tmp/cc0mbFBd.s:3183   .debug_str:0000000000000598 .LASF20
     /tmp/cc0mbFBd.s:3065   .debug_str:00000000000001e0 .LASF17
     /tmp/cc0mbFBd.s:3041   .debug_str:0000000000000104 .LASF18
     /tmp/cc0mbFBd.s:3133   .debug_str:0000000000000401 .LASF19
     /tmp/cc0mbFBd.s:3051   .debug_str:000000000000016f .LASF21
     /tmp/cc0mbFBd.s:3153   .debug_str:00000000000004a6 .LASF22
     /tmp/cc0mbFBd.s:3035   .debug_str:00000000000000b2 .LASF24
     /tmp/cc0mbFBd.s:3215   .debug_str:0000000000000653 .LASF23
     /tmp/cc0mbFBd.s:3155   .debug_str:00000000000004b0 .LASF25
     /tmp/cc0mbFBd.s:3197   .debug_str:00000000000005d0 .LASF26
     /tmp/cc0mbFBd.s:3079   .debug_str:000000000000024a .LASF28
GAS LISTING /tmp/cc0mbFBd.s 			page 12


     /tmp/cc0mbFBd.s:3127   .debug_str:00000000000003cd .LASF46
     /tmp/cc0mbFBd.s:3189   .debug_str:00000000000005b5 .LASF92
     /tmp/cc0mbFBd.s:3235   .debug_str:00000000000007a9 .LASF93
     /tmp/cc0mbFBd.s:3123   .debug_str:00000000000003b1 .LASF30
     /tmp/cc0mbFBd.s:3165   .debug_str:00000000000004f0 .LASF32
     /tmp/cc0mbFBd.s:3021   .debug_str:0000000000000024 .LASF27
     /tmp/cc0mbFBd.s:3049   .debug_str:0000000000000152 .LASF29
     /tmp/cc0mbFBd.s:3039   .debug_str:00000000000000eb .LASF33
     /tmp/cc0mbFBd.s:3177   .debug_str:000000000000056d .LASF34
     /tmp/cc0mbFBd.s:3105   .debug_str:0000000000000314 .LASF35
     /tmp/cc0mbFBd.s:3115   .debug_str:0000000000000376 .LASF36
     /tmp/cc0mbFBd.s:3143   .debug_str:0000000000000440 .LASF37
     /tmp/cc0mbFBd.s:3069   .debug_str:00000000000001fe .LASF79
     /tmp/cc0mbFBd.s:3233   .debug_str:0000000000000792 .LASF71
     /tmp/cc0mbFBd.s:3157   .debug_str:00000000000004d1 .LASF38
     /tmp/cc0mbFBd.s:3083   .debug_str:000000000000026f .LASF39
     /tmp/cc0mbFBd.s:3249   .debug_str:000000000000082b .LASF40
     /tmp/cc0mbFBd.s:3227   .debug_str:0000000000000761 .LASF41
     /tmp/cc0mbFBd.s:3199   .debug_str:00000000000005d9 .LASF42
     /tmp/cc0mbFBd.s:3163   .debug_str:00000000000004e8 .LASF43
     /tmp/cc0mbFBd.s:3053   .debug_str:0000000000000179 .LASF114
     /tmp/cc0mbFBd.s:3139   .debug_str:000000000000041f .LASF115
     /tmp/cc0mbFBd.s:3245   .debug_str:0000000000000809 .LASF64
     /tmp/cc0mbFBd.s:3027   .debug_str:0000000000000061 .LASF66
     /tmp/cc0mbFBd.s:3221   .debug_str:0000000000000672 .LASF44
     /tmp/cc0mbFBd.s:3217   .debug_str:000000000000065c .LASF45
     /tmp/cc0mbFBd.s:3213   .debug_str:000000000000063d .LASF47
     /tmp/cc0mbFBd.s:3047   .debug_str:0000000000000146 .LASF48
     /tmp/cc0mbFBd.s:3231   .debug_str:000000000000077b .LASF49
     /tmp/cc0mbFBd.s:3241   .debug_str:00000000000007ed .LASF50
     /tmp/cc0mbFBd.s:3211   .debug_str:0000000000000629 .LASF51
     /tmp/cc0mbFBd.s:3219   .debug_str:0000000000000667 .LASF52
     /tmp/cc0mbFBd.s:3095   .debug_str:00000000000002d0 .LASF53
     /tmp/cc0mbFBd.s:3207   .debug_str:0000000000000610 .LASF54
     /tmp/cc0mbFBd.s:3151   .debug_str:000000000000047f .LASF55
     /tmp/cc0mbFBd.s:3179   .debug_str:0000000000000576 .LASF70
     /tmp/cc0mbFBd.s:3031   .debug_str:0000000000000095 .LASF116
     /tmp/cc0mbFBd.s:3085   .debug_str:0000000000000277 .LASF56
     /tmp/cc0mbFBd.s:3071   .debug_str:0000000000000206 .LASF57
     /tmp/cc0mbFBd.s:3137   .debug_str:0000000000000419 .LASF58
     /tmp/cc0mbFBd.s:3145   .debug_str:0000000000000445 .LASF59
     /tmp/cc0mbFBd.s:3195   .debug_str:00000000000005cb .LASF60
     /tmp/cc0mbFBd.s:3029   .debug_str:0000000000000089 .LASF61
     /tmp/cc0mbFBd.s:3255   .debug_str:000000000000084f .LASF62
     /tmp/cc0mbFBd.s:3173   .debug_str:000000000000054e .LASF63
     /tmp/cc0mbFBd.s:3119   .debug_str:000000000000038f .LASF65
     /tmp/cc0mbFBd.s:3161   .debug_str:00000000000004db .LASF67
     /tmp/cc0mbFBd.s:3019   .debug_str:000000000000001f .LASF68
     /tmp/cc0mbFBd.s:3101   .debug_str:00000000000002fa .LASF69
     /tmp/cc0mbFBd.s:3247   .debug_str:0000000000000817 .LASF117
     /tmp/cc0mbFBd.s:3113   .debug_str:000000000000035e .LASF72
     /tmp/cc0mbFBd.s:3229   .debug_str:0000000000000769 .LASF73
     /tmp/cc0mbFBd.s:3167   .debug_str:000000000000051f .LASF74
     /tmp/cc0mbFBd.s:3059   .debug_str:00000000000001ac .LASF75
     /tmp/cc0mbFBd.s:3243   .debug_str:00000000000007f7 .LASF76
     /tmp/cc0mbFBd.s:3073   .debug_str:0000000000000219 .LASF77
     /tmp/cc0mbFBd.s:3237   .debug_str:00000000000007c5 .LASF78
GAS LISTING /tmp/cc0mbFBd.s 			page 13


     /tmp/cc0mbFBd.s:3081   .debug_str:000000000000026a .LASF80
     /tmp/cc0mbFBd.s:3131   .debug_str:00000000000003fc .LASF81
     /tmp/cc0mbFBd.s:3025   .debug_str:0000000000000042 .LASF82
     /tmp/cc0mbFBd.s:3037   .debug_str:00000000000000d3 .LASF83
     /tmp/cc0mbFBd.s:3055   .debug_str:0000000000000187 .LASF84
     /tmp/cc0mbFBd.s:3023   .debug_str:000000000000002a .LASF85
     /tmp/cc0mbFBd.s:3067   .debug_str:00000000000001e5 .LASF86
     /tmp/cc0mbFBd.s:3253   .debug_str:000000000000083c .LASF118
     /tmp/cc0mbFBd.s:3149   .debug_str:0000000000000466 .LASF119
     /tmp/cc0mbFBd.s:3205   .debug_str:000000000000060b .LASF87
     /tmp/cc0mbFBd.s:3159   .debug_str:00000000000004d6 .LASF88
     /tmp/cc0mbFBd.s:3185   .debug_str:00000000000005a2 .LASF89
     /tmp/cc0mbFBd.s:3203   .debug_str:00000000000005f8 .LASF90
     /tmp/cc0mbFBd.s:3087   .debug_str:0000000000000280 .LASF91
     /tmp/cc0mbFBd.s:3181   .debug_str:0000000000000581 .LASF94
     /tmp/cc0mbFBd.s:3141   .debug_str:0000000000000438 .LASF95
     /tmp/cc0mbFBd.s:3091   .debug_str:00000000000002ad .LASF96
     /tmp/cc0mbFBd.s:3171   .debug_str:0000000000000542 .LASF97
     /tmp/cc0mbFBd.s:3239   .debug_str:00000000000007cf .LASF98
     /tmp/cc0mbFBd.s:3257   .debug_str:000000000000085c .LASF99
     /tmp/cc0mbFBd.s:3077   .debug_str:000000000000022f .LASF100
     /tmp/cc0mbFBd.s:3057   .debug_str:0000000000000197 .LASF120
     /tmp/cc0mbFBd.s:3111   .debug_str:000000000000033a .LASF101
     /tmp/cc0mbFBd.s:289    .text:000000000000016c .LFB48
     /tmp/cc0mbFBd.s:315    .text:00000000000001a0 .LFE48
     /tmp/cc0mbFBd.s:305    .text:0000000000000190 .LVL25
     /tmp/cc0mbFBd.s:3043   .debug_str:0000000000000109 .LASF102
     /tmp/cc0mbFBd.s:9      .text:0000000000000000 .LFB47
     /tmp/cc0mbFBd.s:53     .text:0000000000000040 .LFE47
     /tmp/cc0mbFBd.s:3109   .debug_str:000000000000032b .LASF103
     /tmp/cc0mbFBd.s:3251   .debug_str:0000000000000831 .LASF104
     /tmp/cc0mbFBd.s:38     .text:000000000000002c .LBB23
     /tmp/cc0mbFBd.s:49     .text:000000000000003c .LBE23
     /tmp/cc0mbFBd.s:2797   .debug_loc:0000000000000000 .LLST0
     /tmp/cc0mbFBd.s:3099   .debug_str:00000000000002f5 .LASF105
     /tmp/cc0mbFBd.s:3017   .debug_str:0000000000000000 .LASF107
     /tmp/cc0mbFBd.s:3191   .debug_str:00000000000005bf .LASF106
     /tmp/cc0mbFBd.s:3045   .debug_str:0000000000000133 .LASF108
     /tmp/cc0mbFBd.s:258    .text:0000000000000144 .LFB36
     /tmp/cc0mbFBd.s:284    .text:000000000000016c .LFE36
     /tmp/cc0mbFBd.s:2806   .debug_loc:000000000000002c .LLST14
     /tmp/cc0mbFBd.s:273    .text:000000000000015c .LVL24
     /tmp/cc0mbFBd.s:220    .text:0000000000000114 .LFB35
     /tmp/cc0mbFBd.s:252    .text:0000000000000144 .LFE35
     /tmp/cc0mbFBd.s:2820   .debug_loc:0000000000000065 .LLST12
     /tmp/cc0mbFBd.s:3147   .debug_str:000000000000045a .LASF109
     /tmp/cc0mbFBd.s:2840   .debug_loc:00000000000000b4 .LLST13
     /tmp/cc0mbFBd.s:241    .text:0000000000000134 .LVL22
     /tmp/cc0mbFBd.s:138    .text:00000000000000a8 .LFB34
     /tmp/cc0mbFBd.s:214    .text:0000000000000114 .LFE34
     /tmp/cc0mbFBd.s:3093   .debug_str:00000000000002c9 .LASF110
     /tmp/cc0mbFBd.s:2866   .debug_loc:0000000000000108 .LLST5
     /tmp/cc0mbFBd.s:155    .text:00000000000000c0 .LBB32
     /tmp/cc0mbFBd.s:3001   .debug_ranges:0000000000000000 .Ldebug_ranges0
     /tmp/cc0mbFBd.s:2888   .debug_loc:0000000000000167 .LLST6
     /tmp/cc0mbFBd.s:2903   .debug_loc:00000000000001b0 .LLST7
     /tmp/cc0mbFBd.s:157    .text:00000000000000c0 .LBB34
GAS LISTING /tmp/cc0mbFBd.s 			page 14


     /tmp/cc0mbFBd.s:165    .text:00000000000000cc .LBE34
     /tmp/cc0mbFBd.s:2918   .debug_loc:00000000000001f8 .LLST8
     /tmp/cc0mbFBd.s:163    .text:00000000000000cc .LVL13
     /tmp/cc0mbFBd.s:166    .text:00000000000000cc .LBB36
     /tmp/cc0mbFBd.s:173    .text:00000000000000d4 .LBE36
     /tmp/cc0mbFBd.s:2926   .debug_loc:000000000000021c .LLST9
     /tmp/cc0mbFBd.s:2934   .debug_loc:0000000000000240 .LLST10
     /tmp/cc0mbFBd.s:2941   .debug_loc:0000000000000263 .LLST11
     /tmp/cc0mbFBd.s:59     .text:0000000000000040 .LFB33
     /tmp/cc0mbFBd.s:132    .text:00000000000000a8 .LFE33
     /tmp/cc0mbFBd.s:74     .text:0000000000000054 .LBB26
     /tmp/cc0mbFBd.s:2948   .debug_loc:0000000000000286 .LLST1
     /tmp/cc0mbFBd.s:2963   .debug_loc:00000000000002ce .LLST2
     /tmp/cc0mbFBd.s:2974   .debug_loc:0000000000000304 .LLST3
     /tmp/cc0mbFBd.s:91     .text:0000000000000074 .LBB28
     /tmp/cc0mbFBd.s:98     .text:000000000000007c .LBE28
     /tmp/cc0mbFBd.s:2981   .debug_loc:0000000000000327 .LLST4
     /tmp/cc0mbFBd.s:95     .text:000000000000007c .LVL6
     /tmp/cc0mbFBd.s:37     .text:000000000000002c .LVL1
     /tmp/cc0mbFBd.s:46     .text:000000000000003c .LVL2
     /tmp/cc0mbFBd.s:261    .text:0000000000000144 .LVL23
     /tmp/cc0mbFBd.s:223    .text:0000000000000114 .LVL19
     /tmp/cc0mbFBd.s:235    .text:0000000000000128 .LVL20
     /tmp/cc0mbFBd.s:239    .text:000000000000012c .LVL21
     /tmp/cc0mbFBd.s:141    .text:00000000000000a8 .LVL10
     /tmp/cc0mbFBd.s:161    .text:00000000000000c4 .LVL12
     /tmp/cc0mbFBd.s:195    .text:00000000000000f8 .LVL16
     /tmp/cc0mbFBd.s:199    .text:0000000000000100 .LVL17
     /tmp/cc0mbFBd.s:154    .text:00000000000000c0 .LVL11
     /tmp/cc0mbFBd.s:182    .text:00000000000000ec .LVL15
     /tmp/cc0mbFBd.s:208    .text:0000000000000110 .LVL18
     /tmp/cc0mbFBd.s:171    .text:00000000000000d4 .LVL14
     /tmp/cc0mbFBd.s:73     .text:0000000000000054 .LVL3
     /tmp/cc0mbFBd.s:114    .text:0000000000000094 .LVL7
     /tmp/cc0mbFBd.s:126    .text:00000000000000a4 .LVL9
     /tmp/cc0mbFBd.s:80     .text:0000000000000060 .LVL4
     /tmp/cc0mbFBd.s:122    .text:00000000000000a0 .LVL8
     /tmp/cc0mbFBd.s:90     .text:0000000000000074 .LVL5
     /tmp/cc0mbFBd.s:335    .debug_info:0000000000000000 .Ldebug_info0
     /tmp/cc0mbFBd.s:100    .text:000000000000007c .LBE26
     /tmp/cc0mbFBd.s:117    .text:0000000000000094 .LBB31
     /tmp/cc0mbFBd.s:128    .text:00000000000000a4 .LBE31
     /tmp/cc0mbFBd.s:185    .text:00000000000000ec .LBE32
     /tmp/cc0mbFBd.s:202    .text:0000000000000100 .LBB39
     /tmp/cc0mbFBd.s:210    .text:0000000000000110 .LBE39

UNDEFINED SYMBOLS
_ZN15MemoryAllocator8mem_freeEPv
_ZN15MemoryAllocator9mem_allocEm
