GAS LISTING /tmp/ccmfC6ev.s 			page 1


   1              		.file	"SyscallCpp.cpp"
   2              		.option pic
   3              		.option norelax
   4              		.text
   5              	.Ltext0:
   6              		.section	.text._ZN6Thread3runEv,"axG",@progbits,_ZN6Thread3runEv,comdat
   7              		.align	2
   8              		.weak	_ZN6Thread3runEv
  10              	_ZN6Thread3runEv:
  11              	.LFB0:
  12              		.file 1 "src/../h/SyscallCpp.hpp"
   1:src/../h/SyscallCpp.hpp **** 
   2:src/../h/SyscallCpp.hpp **** 
   3:src/../h/SyscallCpp.hpp **** #ifndef PROJECT_BASE_V1_1_SYSCALLCPP_HPP
   4:src/../h/SyscallCpp.hpp **** #define PROJECT_BASE_V1_1_SYSCALLCPP_HPP
   5:src/../h/SyscallCpp.hpp **** 
   6:src/../h/SyscallCpp.hpp **** #include "SyscallC.hpp"
   7:src/../h/SyscallCpp.hpp **** 
   8:src/../h/SyscallCpp.hpp **** class Thread {
   9:src/../h/SyscallCpp.hpp **** 
  10:src/../h/SyscallCpp.hpp **** public:
  11:src/../h/SyscallCpp.hpp ****     Thread (void (*body)(void*), void* arg);
  12:src/../h/SyscallCpp.hpp ****     virtual ~Thread();
  13:src/../h/SyscallCpp.hpp **** 
  14:src/../h/SyscallCpp.hpp **** 
  15:src/../h/SyscallCpp.hpp ****     int start();
  16:src/../h/SyscallCpp.hpp **** 
  17:src/../h/SyscallCpp.hpp **** 
  18:src/../h/SyscallCpp.hpp ****     static void dispatch ();
  19:src/../h/SyscallCpp.hpp ****     static int sleep (time_t);
  20:src/../h/SyscallCpp.hpp **** 
  21:src/../h/SyscallCpp.hpp **** protected:
  22:src/../h/SyscallCpp.hpp ****     Thread ();
  23:src/../h/SyscallCpp.hpp ****     virtual void run () {};
  13              		.loc 1 23 18
  14              		.cfi_startproc
  15              	.LVL0:
  16 0000 130101FF 		addi	sp,sp,-16
  17              		.cfi_def_cfa_offset 16
  18 0004 23348100 		sd	s0,8(sp)
  19              		.cfi_offset 8, -8
  20 0008 13040101 		addi	s0,sp,16
  21              		.cfi_def_cfa 8, 0
  22              		.loc 1 23 26 is_stmt 0
  23 000c 03348100 		ld	s0,8(sp)
  24              		.cfi_restore 8
  25              		.cfi_def_cfa 2, 16
  26 0010 13010101 		addi	sp,sp,16
  27              		.cfi_def_cfa_offset 0
  28 0014 67800000 		jr	ra
  29              		.cfi_endproc
  30              	.LFE0:
  32              		.text
  33              		.align	2
  34              		.globl	_ZN6Thread10wrapperRunEPv
  36              	_ZN6Thread10wrapperRunEPv:
  37              	.LFB46:
GAS LISTING /tmp/ccmfC6ev.s 			page 2


  38              		.file 2 "src/SyscallCpp.cpp"
   1:src/SyscallCpp.cpp **** #include "../h/SyscallCpp.hpp"
   2:src/SyscallCpp.cpp **** #include "../h/tcb.hpp"
   3:src/SyscallCpp.cpp **** 
   4:src/SyscallCpp.cpp **** Thread::Thread(void (*body)(void*), void *arg) {
   5:src/SyscallCpp.cpp ****     this->myHandle=nullptr;
   6:src/SyscallCpp.cpp ****     this->body=body;
   7:src/SyscallCpp.cpp ****     this->arg=arg;
   8:src/SyscallCpp.cpp **** }
   9:src/SyscallCpp.cpp **** 
  10:src/SyscallCpp.cpp **** Thread::Thread() {
  11:src/SyscallCpp.cpp ****     this->myHandle=nullptr;
  12:src/SyscallCpp.cpp ****     this->body=wrapperRun;
  13:src/SyscallCpp.cpp ****     this->arg=(void*)this;
  14:src/SyscallCpp.cpp **** }
  15:src/SyscallCpp.cpp **** 
  16:src/SyscallCpp.cpp **** Thread::~Thread() {
  17:src/SyscallCpp.cpp ****     delete myHandle;
  18:src/SyscallCpp.cpp **** }
  19:src/SyscallCpp.cpp **** 
  20:src/SyscallCpp.cpp **** int Thread::start() {
  21:src/SyscallCpp.cpp ****     return thread_create(&myHandle, this->body, this->arg);
  22:src/SyscallCpp.cpp **** }
  23:src/SyscallCpp.cpp **** 
  24:src/SyscallCpp.cpp **** void Thread::dispatch() {
  25:src/SyscallCpp.cpp ****     thread_dispatch();
  26:src/SyscallCpp.cpp **** }
  27:src/SyscallCpp.cpp **** 
  28:src/SyscallCpp.cpp **** void Thread::wrapperRun(void *arg) {
  39              		.loc 2 28 36 is_stmt 1
  40              		.cfi_startproc
  41              	.LVL1:
  42 0000 130101FF 		addi	sp,sp,-16
  43              		.cfi_def_cfa_offset 16
  44 0004 23341100 		sd	ra,8(sp)
  45 0008 23308100 		sd	s0,0(sp)
  46              		.cfi_offset 1, -8
  47              		.cfi_offset 8, -16
  48 000c 13040101 		addi	s0,sp,16
  49              		.cfi_def_cfa 8, 0
  29:src/SyscallCpp.cpp ****     Thread* thread=(Thread*)arg;
  50              		.loc 2 29 5
  51              	.LVL2:
  30:src/SyscallCpp.cpp ****     thread->run();
  52              		.loc 2 30 5
  53              		.loc 2 30 17 is_stmt 0
  54 0010 83370500 		ld	a5,0(a0)
  55 0014 83B70701 		ld	a5,16(a5)
  56              		.loc 2 30 16
  57 0018 E7800700 		jalr	a5
  58              	.LVL3:
  31:src/SyscallCpp.cpp **** }
  59              		.loc 2 31 1
  60 001c 83308100 		ld	ra,8(sp)
  61              		.cfi_restore 1
  62 0020 03340100 		ld	s0,0(sp)
  63              		.cfi_restore 8
GAS LISTING /tmp/ccmfC6ev.s 			page 3


  64              		.cfi_def_cfa 2, 16
  65 0024 13010101 		addi	sp,sp,16
  66              		.cfi_def_cfa_offset 0
  67 0028 67800000 		jr	ra
  68              		.cfi_endproc
  69              	.LFE46:
  71              		.align	2
  72              		.globl	_ZN6ThreadD2Ev
  74              	_ZN6ThreadD2Ev:
  75              	.LFB41:
  16:src/SyscallCpp.cpp ****     delete myHandle;
  76              		.loc 2 16 1 is_stmt 1
  77              		.cfi_startproc
  78              		.cfi_personality 0x9b,DW.ref.__gxx_personality_v0
  79              		.cfi_lsda 0x1b,.LLSDA41
  80              	.LVL4:
  81 002c 130101FE 		addi	sp,sp,-32
  82              		.cfi_def_cfa_offset 32
  83 0030 233C1100 		sd	ra,24(sp)
  84 0034 23388100 		sd	s0,16(sp)
  85 0038 23349100 		sd	s1,8(sp)
  86              		.cfi_offset 1, -8
  87              		.cfi_offset 8, -16
  88              		.cfi_offset 9, -24
  89 003c 13040102 		addi	s0,sp,32
  90              		.cfi_def_cfa 8, 0
  91              	.LBB6:
  16:src/SyscallCpp.cpp ****     delete myHandle;
  92              		.loc 2 16 17 is_stmt 0
  93 0040 97070000 		lla	a5,_ZTV6Thread+16
  93      93870700 
  94 0048 2330F500 		sd	a5,0(a0)
  17:src/SyscallCpp.cpp **** }
  95              		.loc 2 17 5 is_stmt 1
  17:src/SyscallCpp.cpp **** }
  96              		.loc 2 17 12 is_stmt 0
  97 004c 83348500 		ld	s1,8(a0)
  17:src/SyscallCpp.cpp **** }
  98              		.loc 2 17 20
  99 0050 638E0400 		beqz	s1,.L5
 100              	.LVL5:
 101              	.LBB7:
 102              	.LBB8:
 103              		.file 3 "src/../h/tcb.hpp"
   1:src/../h/tcb.hpp **** 
   2:src/../h/tcb.hpp **** 
   3:src/../h/tcb.hpp **** #ifndef PROJECT_BASE_V1_1_TCB_HPP
   4:src/../h/tcb.hpp **** #define PROJECT_BASE_V1_1_TCB_HPP
   5:src/../h/tcb.hpp **** 
   6:src/../h/tcb.hpp **** 
   7:src/../h/tcb.hpp **** #include "../lib/hw.h"
   8:src/../h/tcb.hpp **** #include "Scheduler.hpp"
   9:src/../h/tcb.hpp **** #include "MemoryAllocator.hpp"
  10:src/../h/tcb.hpp **** #include "riscv.hpp"
  11:src/../h/tcb.hpp **** 
  12:src/../h/tcb.hpp **** 
  13:src/../h/tcb.hpp **** using body=void(*)(void*);
GAS LISTING /tmp/ccmfC6ev.s 			page 4


  14:src/../h/tcb.hpp **** 
  15:src/../h/tcb.hpp **** class TCB{
  16:src/../h/tcb.hpp **** 
  17:src/../h/tcb.hpp **** private:
  18:src/../h/tcb.hpp **** 
  19:src/../h/tcb.hpp ****     TCB(body routine, void* arg, void * stack);
  20:src/../h/tcb.hpp **** 
  21:src/../h/tcb.hpp ****     struct Context{
  22:src/../h/tcb.hpp ****         uint64 ra;
  23:src/../h/tcb.hpp ****         uint64 sp;
  24:src/../h/tcb.hpp ****     };
  25:src/../h/tcb.hpp **** 
  26:src/../h/tcb.hpp **** 
  27:src/../h/tcb.hpp ****     uint64 t_ID;
  28:src/../h/tcb.hpp ****     body routine;
  29:src/../h/tcb.hpp ****     uint64* stack;
  30:src/../h/tcb.hpp ****     void* arg;
  31:src/../h/tcb.hpp ****     Context context;
  32:src/../h/tcb.hpp ****     bool finished;
  33:src/../h/tcb.hpp ****     bool blocked;
  34:src/../h/tcb.hpp **** 
  35:src/../h/tcb.hpp ****     friend class riscv;
  36:src/../h/tcb.hpp **** 
  37:src/../h/tcb.hpp ****     static void threadWrapper();
  38:src/../h/tcb.hpp **** 
  39:src/../h/tcb.hpp ****     static void contextSwitch(Context *oldContext, Context *runningContext);
  40:src/../h/tcb.hpp **** 
  41:src/../h/tcb.hpp **** public:
  42:src/../h/tcb.hpp **** 
  43:src/../h/tcb.hpp ****     friend class Sem;
  44:src/../h/tcb.hpp ****     static int id;
  45:src/../h/tcb.hpp ****     static TCB* running;
  46:src/../h/tcb.hpp **** 
  47:src/../h/tcb.hpp ****     bool isFinished()  { return finished; }
  48:src/../h/tcb.hpp **** 
  49:src/../h/tcb.hpp ****     void setFinished(bool value) { finished = value; }
  50:src/../h/tcb.hpp **** 
  51:src/../h/tcb.hpp ****     bool isBlocked()  { return blocked; }
  52:src/../h/tcb.hpp **** 
  53:src/../h/tcb.hpp ****     void setBlocked(bool value) { blocked = value; }
  54:src/../h/tcb.hpp **** 
  55:src/../h/tcb.hpp ****     static int createThread(TCB** handle, body routine, void* arg, void* stack);
  56:src/../h/tcb.hpp ****     static int threadExit();
  57:src/../h/tcb.hpp ****     static void dispatch();
  58:src/../h/tcb.hpp ****     static void yield(TCB*, TCB*);
  59:src/../h/tcb.hpp **** 
  60:src/../h/tcb.hpp ****     ~TCB() { MemoryAllocator::mem_free(this->stack); }
 104              		.loc 3 60 14 is_stmt 1
 105              		.loc 3 60 39 is_stmt 0
 106 0054 03B50401 		ld	a0,16(s1)
 107              	.LVL6:
 108 0058 97000000 		call	_ZN15MemoryAllocator8mem_freeEPv@plt
 108      E7800000 
 109              	.LVL7:
 110              	.LBE8:
 111              	.LBE7:
  17:src/SyscallCpp.cpp **** }
GAS LISTING /tmp/ccmfC6ev.s 			page 5


 112              		.loc 2 17 12
 113 0060 13850400 		mv	a0,s1
 114 0064 97000000 		call	_ZN3TCBdlEPv@plt
 114      E7800000 
 115              	.LVL8:
 116              	.L5:
 117              	.LBE6:
  18:src/SyscallCpp.cpp **** 
 118              		.loc 2 18 1
 119 006c 83308101 		ld	ra,24(sp)
 120              		.cfi_restore 1
 121 0070 03340101 		ld	s0,16(sp)
 122              		.cfi_restore 8
 123              		.cfi_def_cfa 2, 32
 124 0074 83348100 		ld	s1,8(sp)
 125              		.cfi_restore 9
 126 0078 13010102 		addi	sp,sp,32
 127              		.cfi_def_cfa_offset 0
 128 007c 67800000 		jr	ra
 129              		.cfi_endproc
 130              	.LFE41:
 131              		.globl	__gxx_personality_v0
 132              		.section	.gcc_except_table,"a",@progbits
 133              	.LLSDA41:
 134 0000 FF       		.byte	0xff
 135 0001 FF       		.byte	0xff
 136 0002 03       		.byte	0x3
 137 0003 00       		.byte	0
 138              		.text
 140              		.globl	_ZN6ThreadD1Ev
 141              		.set	_ZN6ThreadD1Ev,_ZN6ThreadD2Ev
 142              		.align	2
 143              		.globl	_ZN6ThreadD0Ev
 145              	_ZN6ThreadD0Ev:
 146              	.LFB43:
  16:src/SyscallCpp.cpp ****     delete myHandle;
 147              		.loc 2 16 1 is_stmt 1
 148              		.cfi_startproc
 149              	.LVL9:
 150 0080 130101FE 		addi	sp,sp,-32
 151              		.cfi_def_cfa_offset 32
 152 0084 233C1100 		sd	ra,24(sp)
 153 0088 23388100 		sd	s0,16(sp)
 154 008c 23349100 		sd	s1,8(sp)
 155              		.cfi_offset 1, -8
 156              		.cfi_offset 8, -16
 157              		.cfi_offset 9, -24
 158 0090 13040102 		addi	s0,sp,32
 159              		.cfi_def_cfa 8, 0
 160 0094 93040500 		mv	s1,a0
  18:src/SyscallCpp.cpp **** 
 161              		.loc 2 18 1 is_stmt 0
 162 0098 97000000 		call	_ZN6ThreadD1Ev
 162      E7800000 
 163              	.LVL10:
 164 00a0 13850400 		mv	a0,s1
 165 00a4 97000000 		call	_ZdlPv@plt
GAS LISTING /tmp/ccmfC6ev.s 			page 6


 165      E7800000 
 166              	.LVL11:
 167 00ac 83308101 		ld	ra,24(sp)
 168              		.cfi_restore 1
 169 00b0 03340101 		ld	s0,16(sp)
 170              		.cfi_restore 8
 171              		.cfi_def_cfa 2, 32
 172 00b4 83348100 		ld	s1,8(sp)
 173              		.cfi_restore 9
 174              	.LVL12:
 175 00b8 13010102 		addi	sp,sp,32
 176              		.cfi_def_cfa_offset 0
 177 00bc 67800000 		jr	ra
 178              		.cfi_endproc
 179              	.LFE43:
 181              		.align	2
 182              		.globl	_ZN9SemaphoreD2Ev
 184              	_ZN9SemaphoreD2Ev:
 185              	.LFB51:
  32:src/SyscallCpp.cpp **** 
  33:src/SyscallCpp.cpp **** Semaphore::Semaphore(unsigned int init) {
  34:src/SyscallCpp.cpp ****     sem_open(&myHandle, init);
  35:src/SyscallCpp.cpp **** }
  36:src/SyscallCpp.cpp **** 
  37:src/SyscallCpp.cpp **** Semaphore::~Semaphore() {
 186              		.loc 2 37 1 is_stmt 1
 187              		.cfi_startproc
 188              		.cfi_personality 0x9b,DW.ref.__gxx_personality_v0
 189              		.cfi_lsda 0x1b,.LLSDA51
 190              	.LVL13:
 191              	.LBB9:
 192              		.loc 2 37 23 is_stmt 0
 193 00c0 97070000 		lla	a5,_ZTV9Semaphore+16
 193      93870700 
 194 00c8 2330F500 		sd	a5,0(a0)
  38:src/SyscallCpp.cpp ****     if(myHandle!=nullptr){
 195              		.loc 2 38 5 is_stmt 1
 196              		.loc 2 38 8 is_stmt 0
 197 00cc 03358500 		ld	a0,8(a0)
 198              	.LVL14:
 199              		.loc 2 38 5
 200 00d0 63060502 		beqz	a0,.L13
 201              	.LBE9:
  37:src/SyscallCpp.cpp ****     if(myHandle!=nullptr){
 202              		.loc 2 37 1
 203 00d4 130101FF 		addi	sp,sp,-16
 204              		.cfi_def_cfa_offset 16
 205 00d8 23341100 		sd	ra,8(sp)
 206 00dc 23308100 		sd	s0,0(sp)
 207              		.cfi_offset 1, -8
 208              		.cfi_offset 8, -16
 209 00e0 13040101 		addi	s0,sp,16
 210              		.cfi_def_cfa 8, 0
 211              	.LBB10:
  39:src/SyscallCpp.cpp ****         sem_close(myHandle);
 212              		.loc 2 39 9 is_stmt 1
 213              		.loc 2 39 18 is_stmt 0
GAS LISTING /tmp/ccmfC6ev.s 			page 7


 214 00e4 97000000 		call	_Z9sem_closeP3Sem@plt
 214      E7800000 
 215              	.LVL15:
 216              	.LBE10:
  40:src/SyscallCpp.cpp ****     }
  41:src/SyscallCpp.cpp **** }
 217              		.loc 2 41 1
 218 00ec 83308100 		ld	ra,8(sp)
 219              		.cfi_restore 1
 220 00f0 03340100 		ld	s0,0(sp)
 221              		.cfi_restore 8
 222              		.cfi_def_cfa 2, 16
 223 00f4 13010101 		addi	sp,sp,16
 224              		.cfi_def_cfa_offset 0
 225 00f8 67800000 		jr	ra
 226              	.L13:
 227 00fc 67800000 		ret
 228              		.cfi_endproc
 229              	.LFE51:
 230              		.section	.gcc_except_table
 231              	.LLSDA51:
 232 0004 FF       		.byte	0xff
 233 0005 FF       		.byte	0xff
 234 0006 03       		.byte	0x3
 235 0007 00       		.byte	0
 236              		.text
 238              		.globl	_ZN9SemaphoreD1Ev
 239              		.set	_ZN9SemaphoreD1Ev,_ZN9SemaphoreD2Ev
 240              		.align	2
 241              		.globl	_ZN9SemaphoreD0Ev
 243              	_ZN9SemaphoreD0Ev:
 244              	.LFB53:
  37:src/SyscallCpp.cpp ****     if(myHandle!=nullptr){
 245              		.loc 2 37 1 is_stmt 1
 246              		.cfi_startproc
 247              	.LVL16:
 248 0100 130101FE 		addi	sp,sp,-32
 249              		.cfi_def_cfa_offset 32
 250 0104 233C1100 		sd	ra,24(sp)
 251 0108 23388100 		sd	s0,16(sp)
 252 010c 23349100 		sd	s1,8(sp)
 253              		.cfi_offset 1, -8
 254              		.cfi_offset 8, -16
 255              		.cfi_offset 9, -24
 256 0110 13040102 		addi	s0,sp,32
 257              		.cfi_def_cfa 8, 0
 258 0114 93040500 		mv	s1,a0
 259              		.loc 2 41 1 is_stmt 0
 260 0118 97000000 		call	_ZN9SemaphoreD1Ev
 260      E7800000 
 261              	.LVL17:
 262 0120 13850400 		mv	a0,s1
 263 0124 97000000 		call	_ZdlPv@plt
 263      E7800000 
 264              	.LVL18:
 265 012c 83308101 		ld	ra,24(sp)
 266              		.cfi_restore 1
GAS LISTING /tmp/ccmfC6ev.s 			page 8


 267 0130 03340101 		ld	s0,16(sp)
 268              		.cfi_restore 8
 269              		.cfi_def_cfa 2, 32
 270 0134 83348100 		ld	s1,8(sp)
 271              		.cfi_restore 9
 272              	.LVL19:
 273 0138 13010102 		addi	sp,sp,32
 274              		.cfi_def_cfa_offset 0
 275 013c 67800000 		jr	ra
 276              		.cfi_endproc
 277              	.LFE53:
 279              		.align	2
 280              		.globl	_ZN6ThreadC2EPFvPvES0_
 282              	_ZN6ThreadC2EPFvPvES0_:
 283              	.LFB35:
   4:src/SyscallCpp.cpp ****     this->myHandle=nullptr;
 284              		.loc 2 4 1 is_stmt 1
 285              		.cfi_startproc
 286              	.LVL20:
 287 0140 130101FF 		addi	sp,sp,-16
 288              		.cfi_def_cfa_offset 16
 289 0144 23348100 		sd	s0,8(sp)
 290              		.cfi_offset 8, -8
 291 0148 13040101 		addi	s0,sp,16
 292              		.cfi_def_cfa 8, 0
 293              	.LBB11:
   4:src/SyscallCpp.cpp ****     this->myHandle=nullptr;
 294              		.loc 2 4 46 is_stmt 0
 295 014c 97070000 		lla	a5,_ZTV6Thread+16
 295      93870700 
 296 0154 2330F500 		sd	a5,0(a0)
   5:src/SyscallCpp.cpp ****     this->body=body;
 297              		.loc 2 5 5 is_stmt 1
   5:src/SyscallCpp.cpp ****     this->body=body;
 298              		.loc 2 5 19 is_stmt 0
 299 0158 23340500 		sd	zero,8(a0)
   6:src/SyscallCpp.cpp ****     this->arg=arg;
 300              		.loc 2 6 5 is_stmt 1
   6:src/SyscallCpp.cpp ****     this->arg=arg;
 301              		.loc 2 6 15 is_stmt 0
 302 015c 2338B500 		sd	a1,16(a0)
   7:src/SyscallCpp.cpp **** }
 303              		.loc 2 7 5 is_stmt 1
   7:src/SyscallCpp.cpp **** }
 304              		.loc 2 7 14 is_stmt 0
 305 0160 233CC500 		sd	a2,24(a0)
 306              	.LBE11:
   8:src/SyscallCpp.cpp **** 
 307              		.loc 2 8 1
 308 0164 03348100 		ld	s0,8(sp)
 309              		.cfi_restore 8
 310              		.cfi_def_cfa 2, 16
 311 0168 13010101 		addi	sp,sp,16
 312              		.cfi_def_cfa_offset 0
 313 016c 67800000 		jr	ra
 314              		.cfi_endproc
 315              	.LFE35:
GAS LISTING /tmp/ccmfC6ev.s 			page 9


 317              		.globl	_ZN6ThreadC1EPFvPvES0_
 318              		.set	_ZN6ThreadC1EPFvPvES0_,_ZN6ThreadC2EPFvPvES0_
 319              		.align	2
 320              		.globl	_ZN6ThreadC2Ev
 322              	_ZN6ThreadC2Ev:
 323              	.LFB38:
  10:src/SyscallCpp.cpp ****     this->myHandle=nullptr;
 324              		.loc 2 10 1 is_stmt 1
 325              		.cfi_startproc
 326              	.LVL21:
 327 0170 130101FF 		addi	sp,sp,-16
 328              		.cfi_def_cfa_offset 16
 329 0174 23348100 		sd	s0,8(sp)
 330              		.cfi_offset 8, -8
 331 0178 13040101 		addi	s0,sp,16
 332              		.cfi_def_cfa 8, 0
 333              	.LBB12:
  10:src/SyscallCpp.cpp ****     this->myHandle=nullptr;
 334              		.loc 2 10 16 is_stmt 0
 335 017c 97070000 		lla	a5,_ZTV6Thread+16
 335      93870700 
 336 0184 2330F500 		sd	a5,0(a0)
  11:src/SyscallCpp.cpp ****     this->body=wrapperRun;
 337              		.loc 2 11 5 is_stmt 1
  11:src/SyscallCpp.cpp ****     this->body=wrapperRun;
 338              		.loc 2 11 19 is_stmt 0
 339 0188 23340500 		sd	zero,8(a0)
  12:src/SyscallCpp.cpp ****     this->arg=(void*)this;
 340              		.loc 2 12 5 is_stmt 1
  12:src/SyscallCpp.cpp ****     this->arg=(void*)this;
 341              		.loc 2 12 15 is_stmt 0
 342 018c 97070000 		lla	a5,_ZN6Thread10wrapperRunEPv
 342      93870700 
 343 0194 2338F500 		sd	a5,16(a0)
  13:src/SyscallCpp.cpp **** }
 344              		.loc 2 13 5 is_stmt 1
  13:src/SyscallCpp.cpp **** }
 345              		.loc 2 13 14 is_stmt 0
 346 0198 233CA500 		sd	a0,24(a0)
 347              	.LBE12:
  14:src/SyscallCpp.cpp **** 
 348              		.loc 2 14 1
 349 019c 03348100 		ld	s0,8(sp)
 350              		.cfi_restore 8
 351              		.cfi_def_cfa 2, 16
 352 01a0 13010101 		addi	sp,sp,16
 353              		.cfi_def_cfa_offset 0
 354 01a4 67800000 		jr	ra
 355              		.cfi_endproc
 356              	.LFE38:
 358              		.globl	_ZN6ThreadC1Ev
 359              		.set	_ZN6ThreadC1Ev,_ZN6ThreadC2Ev
 360              		.align	2
 361              		.globl	_ZN6Thread5startEv
 363              	_ZN6Thread5startEv:
 364              	.LFB44:
  20:src/SyscallCpp.cpp ****     return thread_create(&myHandle, this->body, this->arg);
GAS LISTING /tmp/ccmfC6ev.s 			page 10


 365              		.loc 2 20 21 is_stmt 1
 366              		.cfi_startproc
 367              	.LVL22:
 368 01a8 130101FF 		addi	sp,sp,-16
 369              		.cfi_def_cfa_offset 16
 370 01ac 23341100 		sd	ra,8(sp)
 371 01b0 23308100 		sd	s0,0(sp)
 372              		.cfi_offset 1, -8
 373              		.cfi_offset 8, -16
 374 01b4 13040101 		addi	s0,sp,16
 375              		.cfi_def_cfa 8, 0
  21:src/SyscallCpp.cpp **** }
 376              		.loc 2 21 5
  21:src/SyscallCpp.cpp **** }
 377              		.loc 2 21 25 is_stmt 0
 378 01b8 03368501 		ld	a2,24(a0)
 379 01bc 83350501 		ld	a1,16(a0)
 380 01c0 13058500 		addi	a0,a0,8
 381              	.LVL23:
 382 01c4 97000000 		call	_Z13thread_createPP3TCBPFvPvES2_@plt
 382      E7800000 
 383              	.LVL24:
  22:src/SyscallCpp.cpp **** 
 384              		.loc 2 22 1
 385 01cc 83308100 		ld	ra,8(sp)
 386              		.cfi_restore 1
 387 01d0 03340100 		ld	s0,0(sp)
 388              		.cfi_restore 8
 389              		.cfi_def_cfa 2, 16
 390 01d4 13010101 		addi	sp,sp,16
 391              		.cfi_def_cfa_offset 0
 392 01d8 67800000 		jr	ra
 393              		.cfi_endproc
 394              	.LFE44:
 396              		.align	2
 397              		.globl	_ZN6Thread8dispatchEv
 399              	_ZN6Thread8dispatchEv:
 400              	.LFB45:
  24:src/SyscallCpp.cpp ****     thread_dispatch();
 401              		.loc 2 24 25 is_stmt 1
 402              		.cfi_startproc
 403 01dc 130101FF 		addi	sp,sp,-16
 404              		.cfi_def_cfa_offset 16
 405 01e0 23341100 		sd	ra,8(sp)
 406 01e4 23308100 		sd	s0,0(sp)
 407              		.cfi_offset 1, -8
 408              		.cfi_offset 8, -16
 409 01e8 13040101 		addi	s0,sp,16
 410              		.cfi_def_cfa 8, 0
  25:src/SyscallCpp.cpp **** }
 411              		.loc 2 25 5
  25:src/SyscallCpp.cpp **** }
 412              		.loc 2 25 20 is_stmt 0
 413 01ec 97000000 		call	_Z15thread_dispatchv@plt
 413      E7800000 
 414              	.LVL25:
  26:src/SyscallCpp.cpp **** 
GAS LISTING /tmp/ccmfC6ev.s 			page 11


 415              		.loc 2 26 1
 416 01f4 83308100 		ld	ra,8(sp)
 417              		.cfi_restore 1
 418 01f8 03340100 		ld	s0,0(sp)
 419              		.cfi_restore 8
 420              		.cfi_def_cfa 2, 16
 421 01fc 13010101 		addi	sp,sp,16
 422              		.cfi_def_cfa_offset 0
 423 0200 67800000 		jr	ra
 424              		.cfi_endproc
 425              	.LFE45:
 427              		.align	2
 428              		.globl	_ZN9SemaphoreC2Ej
 430              	_ZN9SemaphoreC2Ej:
 431              	.LFB48:
  33:src/SyscallCpp.cpp ****     sem_open(&myHandle, init);
 432              		.loc 2 33 1 is_stmt 1
 433              		.cfi_startproc
 434              	.LVL26:
 435 0204 130101FF 		addi	sp,sp,-16
 436              		.cfi_def_cfa_offset 16
 437 0208 23341100 		sd	ra,8(sp)
 438 020c 23308100 		sd	s0,0(sp)
 439              		.cfi_offset 1, -8
 440              		.cfi_offset 8, -16
 441 0210 13040101 		addi	s0,sp,16
 442              		.cfi_def_cfa 8, 0
 443              	.LBB13:
  33:src/SyscallCpp.cpp ****     sem_open(&myHandle, init);
 444              		.loc 2 33 39 is_stmt 0
 445 0214 97070000 		lla	a5,_ZTV9Semaphore+16
 445      93870700 
 446 021c 2330F500 		sd	a5,0(a0)
  34:src/SyscallCpp.cpp **** }
 447              		.loc 2 34 5 is_stmt 1
  34:src/SyscallCpp.cpp **** }
 448              		.loc 2 34 13 is_stmt 0
 449 0220 13058500 		addi	a0,a0,8
 450              	.LVL27:
 451 0224 97000000 		call	_Z8sem_openPP3Semj@plt
 451      E7800000 
 452              	.LVL28:
 453              	.LBE13:
  35:src/SyscallCpp.cpp **** 
 454              		.loc 2 35 1
 455 022c 83308100 		ld	ra,8(sp)
 456              		.cfi_restore 1
 457 0230 03340100 		ld	s0,0(sp)
 458              		.cfi_restore 8
 459              		.cfi_def_cfa 2, 16
 460 0234 13010101 		addi	sp,sp,16
 461              		.cfi_def_cfa_offset 0
 462 0238 67800000 		jr	ra
 463              		.cfi_endproc
 464              	.LFE48:
 466              		.globl	_ZN9SemaphoreC1Ej
 467              		.set	_ZN9SemaphoreC1Ej,_ZN9SemaphoreC2Ej
GAS LISTING /tmp/ccmfC6ev.s 			page 12


 468              		.align	2
 469              		.globl	_ZN9Semaphore4waitEv
 471              	_ZN9Semaphore4waitEv:
 472              	.LFB54:
  42:src/SyscallCpp.cpp **** 
  43:src/SyscallCpp.cpp **** int Semaphore::wait() {
 473              		.loc 2 43 23 is_stmt 1
 474              		.cfi_startproc
 475              	.LVL29:
  44:src/SyscallCpp.cpp ****     if(myHandle!=nullptr){
 476              		.loc 2 44 5
 477              		.loc 2 44 8 is_stmt 0
 478 023c 03358500 		ld	a0,8(a0)
 479              	.LVL30:
 480              		.loc 2 44 5
 481 0240 63060502 		beqz	a0,.L30
  43:src/SyscallCpp.cpp ****     if(myHandle!=nullptr){
 482              		.loc 2 43 23
 483 0244 130101FF 		addi	sp,sp,-16
 484              		.cfi_def_cfa_offset 16
 485 0248 23341100 		sd	ra,8(sp)
 486 024c 23308100 		sd	s0,0(sp)
 487              		.cfi_offset 1, -8
 488              		.cfi_offset 8, -16
 489 0250 13040101 		addi	s0,sp,16
 490              		.cfi_def_cfa 8, 0
  45:src/SyscallCpp.cpp ****         return sem_wait(myHandle);
 491              		.loc 2 45 9 is_stmt 1
 492              		.loc 2 45 24 is_stmt 0
 493 0254 97000000 		call	_Z8sem_waitP3Sem@plt
 493      E7800000 
 494              	.LVL31:
  46:src/SyscallCpp.cpp ****     }
  47:src/SyscallCpp.cpp ****     return -1;
  48:src/SyscallCpp.cpp **** }
 495              		.loc 2 48 1
 496 025c 83308100 		ld	ra,8(sp)
 497              		.cfi_restore 1
 498 0260 03340100 		ld	s0,0(sp)
 499              		.cfi_restore 8
 500              		.cfi_def_cfa 2, 16
 501 0264 13010101 		addi	sp,sp,16
 502              		.cfi_def_cfa_offset 0
 503 0268 67800000 		jr	ra
 504              	.L30:
  47:src/SyscallCpp.cpp **** }
 505              		.loc 2 47 13
 506 026c 1305F0FF 		li	a0,-1
 507              		.loc 2 48 1
 508 0270 67800000 		ret
 509              		.cfi_endproc
 510              	.LFE54:
 512              		.align	2
 513              		.globl	_ZN9Semaphore6signalEv
 515              	_ZN9Semaphore6signalEv:
 516              	.LFB55:
  49:src/SyscallCpp.cpp **** 
GAS LISTING /tmp/ccmfC6ev.s 			page 13


  50:src/SyscallCpp.cpp **** int Semaphore::signal() {
 517              		.loc 2 50 25 is_stmt 1
 518              		.cfi_startproc
 519              	.LVL32:
  51:src/SyscallCpp.cpp ****     if(myHandle!=nullptr){
 520              		.loc 2 51 5
 521              		.loc 2 51 8 is_stmt 0
 522 0274 03358500 		ld	a0,8(a0)
 523              	.LVL33:
 524              		.loc 2 51 5
 525 0278 63060502 		beqz	a0,.L37
  50:src/SyscallCpp.cpp ****     if(myHandle!=nullptr){
 526              		.loc 2 50 25
 527 027c 130101FF 		addi	sp,sp,-16
 528              		.cfi_def_cfa_offset 16
 529 0280 23341100 		sd	ra,8(sp)
 530 0284 23308100 		sd	s0,0(sp)
 531              		.cfi_offset 1, -8
 532              		.cfi_offset 8, -16
 533 0288 13040101 		addi	s0,sp,16
 534              		.cfi_def_cfa 8, 0
  52:src/SyscallCpp.cpp ****         return sem_signal(myHandle);
 535              		.loc 2 52 9 is_stmt 1
 536              		.loc 2 52 26 is_stmt 0
 537 028c 97000000 		call	_Z10sem_signalP3Sem@plt
 537      E7800000 
 538              	.LVL34:
  53:src/SyscallCpp.cpp ****     }
  54:src/SyscallCpp.cpp ****     return -1;
  55:src/SyscallCpp.cpp **** }
 539              		.loc 2 55 1
 540 0294 83308100 		ld	ra,8(sp)
 541              		.cfi_restore 1
 542 0298 03340100 		ld	s0,0(sp)
 543              		.cfi_restore 8
 544              		.cfi_def_cfa 2, 16
 545 029c 13010101 		addi	sp,sp,16
 546              		.cfi_def_cfa_offset 0
 547 02a0 67800000 		jr	ra
 548              	.L37:
  54:src/SyscallCpp.cpp **** }
 549              		.loc 2 54 13
 550 02a4 1305F0FF 		li	a0,-1
 551              		.loc 2 55 1
 552 02a8 67800000 		ret
 553              		.cfi_endproc
 554              	.LFE55:
 556              		.align	2
 557              		.globl	_ZN9Semaphore7tryWaitEv
 559              	_ZN9Semaphore7tryWaitEv:
 560              	.LFB56:
  56:src/SyscallCpp.cpp **** 
  57:src/SyscallCpp.cpp **** int Semaphore::tryWait() {
 561              		.loc 2 57 26 is_stmt 1
 562              		.cfi_startproc
 563              	.LVL35:
 564 02ac 130101FF 		addi	sp,sp,-16
GAS LISTING /tmp/ccmfC6ev.s 			page 14


 565              		.cfi_def_cfa_offset 16
 566 02b0 23341100 		sd	ra,8(sp)
 567 02b4 23308100 		sd	s0,0(sp)
 568              		.cfi_offset 1, -8
 569              		.cfi_offset 8, -16
 570 02b8 13040101 		addi	s0,sp,16
 571              		.cfi_def_cfa 8, 0
  58:src/SyscallCpp.cpp ****     return sem_trywait(myHandle);
 572              		.loc 2 58 5
 573              		.loc 2 58 23 is_stmt 0
 574 02bc 03358500 		ld	a0,8(a0)
 575              	.LVL36:
 576 02c0 97000000 		call	_Z11sem_trywaitP3Sem@plt
 576      E7800000 
 577              	.LVL37:
  59:src/SyscallCpp.cpp **** }
 578              		.loc 2 59 1
 579 02c8 83308100 		ld	ra,8(sp)
 580              		.cfi_restore 1
 581 02cc 03340100 		ld	s0,0(sp)
 582              		.cfi_restore 8
 583              		.cfi_def_cfa 2, 16
 584 02d0 13010101 		addi	sp,sp,16
 585              		.cfi_def_cfa_offset 0
 586 02d4 67800000 		jr	ra
 587              		.cfi_endproc
 588              	.LFE56:
 590              		.align	2
 591              		.globl	_ZN7Console4getcEv
 593              	_ZN7Console4getcEv:
 594              	.LFB57:
  60:src/SyscallCpp.cpp **** 
  61:src/SyscallCpp.cpp **** char Console::getc() {
 595              		.loc 2 61 22 is_stmt 1
 596              		.cfi_startproc
 597 02d8 130101FF 		addi	sp,sp,-16
 598              		.cfi_def_cfa_offset 16
 599 02dc 23341100 		sd	ra,8(sp)
 600 02e0 23308100 		sd	s0,0(sp)
 601              		.cfi_offset 1, -8
 602              		.cfi_offset 8, -16
 603 02e4 13040101 		addi	s0,sp,16
 604              		.cfi_def_cfa 8, 0
  62:src/SyscallCpp.cpp ****     return ::getc();
 605              		.loc 2 62 5
 606              		.loc 2 62 18 is_stmt 0
 607 02e8 97000000 		call	_Z4getcv@plt
 607      E7800000 
 608              	.LVL38:
  63:src/SyscallCpp.cpp **** }
 609              		.loc 2 63 1
 610 02f0 83308100 		ld	ra,8(sp)
 611              		.cfi_restore 1
 612 02f4 03340100 		ld	s0,0(sp)
 613              		.cfi_restore 8
 614              		.cfi_def_cfa 2, 16
 615 02f8 13010101 		addi	sp,sp,16
GAS LISTING /tmp/ccmfC6ev.s 			page 15


 616              		.cfi_def_cfa_offset 0
 617 02fc 67800000 		jr	ra
 618              		.cfi_endproc
 619              	.LFE57:
 621              		.align	2
 622              		.globl	_ZN7Console4putcEc
 624              	_ZN7Console4putcEc:
 625              	.LFB58:
  64:src/SyscallCpp.cpp **** 
  65:src/SyscallCpp.cpp **** void Console::putc(char c) {
 626              		.loc 2 65 28 is_stmt 1
 627              		.cfi_startproc
 628              	.LVL39:
 629 0300 130101FF 		addi	sp,sp,-16
 630              		.cfi_def_cfa_offset 16
 631 0304 23341100 		sd	ra,8(sp)
 632 0308 23308100 		sd	s0,0(sp)
 633              		.cfi_offset 1, -8
 634              		.cfi_offset 8, -16
 635 030c 13040101 		addi	s0,sp,16
 636              		.cfi_def_cfa 8, 0
  66:src/SyscallCpp.cpp ****     ::putc(c);
 637              		.loc 2 66 5
 638              		.loc 2 66 11 is_stmt 0
 639 0310 97000000 		call	_Z4putcc@plt
 639      E7800000 
 640              	.LVL40:
  67:src/SyscallCpp.cpp **** }...
 641              		.loc 2 67 1
 642 0318 83308100 		ld	ra,8(sp)
 643              		.cfi_restore 1
 644 031c 03340100 		ld	s0,0(sp)
 645              		.cfi_restore 8
 646              		.cfi_def_cfa 2, 16
 647 0320 13010101 		addi	sp,sp,16
 648              		.cfi_def_cfa_offset 0
 649 0324 67800000 		jr	ra
 650              		.cfi_endproc
 651              	.LFE58:
 653              		.weak	_ZTV6Thread
 654              		.section	.data.rel.ro.local._ZTV6Thread,"awG",@progbits,_ZTV6Thread,comdat
 655              		.align	3
 658              	_ZTV6Thread:
 659 0000 00000000 		.dword	0
 659      00000000 
 660 0008 00000000 		.dword	0
 660      00000000 
 661 0010 00000000 		.dword	_ZN6ThreadD1Ev
 661      00000000 
 662 0018 00000000 		.dword	_ZN6ThreadD0Ev
 662      00000000 
 663 0020 00000000 		.dword	_ZN6Thread3runEv
 663      00000000 
 664              		.weak	_ZTV9Semaphore
 665              		.section	.data.rel.ro.local._ZTV9Semaphore,"awG",@progbits,_ZTV9Semaphore,comdat
 666              		.align	3
 669              	_ZTV9Semaphore:
GAS LISTING /tmp/ccmfC6ev.s 			page 16


 670 0000 00000000 		.dword	0
 670      00000000 
 671 0008 00000000 		.dword	0
 671      00000000 
 672 0010 00000000 		.dword	_ZN9SemaphoreD1Ev
 672      00000000 
 673 0018 00000000 		.dword	_ZN9SemaphoreD0Ev
 673      00000000 
 674              		.text
 675              	.Letext0:
 676              		.file 4 "src/../h/../lib/hw.h"
 677              		.file 5 "src/../h/SyscallC.hpp"
 678              		.file 6 "src/../h/MemoryAllocator.hpp"
 3819              		.align	3
 3822              	DW.ref.__gxx_personality_v0:
 3823 0000 00000000 		.dword	__gxx_personality_v0
 3823      00000000 
 3824              		.ident	"GCC: (Ubuntu 9.4.0-1ubuntu1~20.04) 9.4.0"
 3825              		.section	.note.GNU-stack,"",@progbits
GAS LISTING /tmp/ccmfC6ev.s 			page 17

