GAS LISTING /tmp/ccjx7owg.s 			page 1


   1              		.file	"tcb.cpp"
   2              		.option pic
   3              		.option norelax
   4              		.text
   5              	.Ltext0:
   6              		.align	2
   7              		.globl	_ZN3TCBC2EPFvPvES0_S0_
   9              	_ZN3TCBC2EPFvPvES0_S0_:
  10              	.LFB34:
  11              		.file 1 "src/tcb.cpp"
   1:src/tcb.cpp   **** #include "../h/tcb.hpp"
   2:src/tcb.cpp   **** 
   3:src/tcb.cpp   **** int TCB::id = 0;
   4:src/tcb.cpp   **** TCB *TCB::running = nullptr;
   5:src/tcb.cpp   **** 
   6:src/tcb.cpp   **** TCB::TCB(body routine, void* arg, void* stack)
  12              		.loc 1 6 1
  13              		.cfi_startproc
  14              	.LVL0:
  15 0000 130101FE 		addi	sp,sp,-32
  16              		.cfi_def_cfa_offset 32
  17 0004 233C1100 		sd	ra,24(sp)
  18 0008 23388100 		sd	s0,16(sp)
  19 000c 23349100 		sd	s1,8(sp)
  20 0010 23302101 		sd	s2,0(sp)
  21              		.cfi_offset 1, -8
  22              		.cfi_offset 8, -16
  23              		.cfi_offset 9, -24
  24              		.cfi_offset 18, -32
  25 0014 13040102 		addi	s0,sp,32
  26              		.cfi_def_cfa 8, 0
  27 0018 93040500 		mv	s1,a0
  28 001c 13890500 		mv	s2,a1
  29              	.LBB15:
   7:src/tcb.cpp   ****         : t_ID(++id), routine(routine), arg(arg), finished(false), blocked(false) {
  30              		.loc 1 7 16 is_stmt 0
  31 0020 17070000 		lla	a4,.LANCHOR0
  31      13070700 
  32 0028 83270700 		lw	a5,0(a4)
  33 002c 9B871700 		addiw	a5,a5,1
  34 0030 9B860700 		sext.w	a3,a5
  35              	.LVL1:
  36              		.loc 1 7 81
  37 0034 2320F700 		sw	a5,0(a4)
  38 0038 2330D500 		sd	a3,0(a0)
  39 003c 2334B500 		sd	a1,8(a0)
  40 0040 233CC500 		sd	a2,24(a0)
  41 0044 23080502 		sb	zero,48(a0)
  42 0048 A3080502 		sb	zero,49(a0)
   8:src/tcb.cpp   **** 
   9:src/tcb.cpp   ****     this->stack = (routine != nullptr) ? new uint64[DEFAULT_STACK_SIZE] : nullptr;
  43              		.loc 1 9 5 is_stmt 1
  44              		.loc 1 9 40 is_stmt 0
  45 004c 63840504 		beqz	a1,.L4
  46              		.loc 1 9 71 discriminator 1
  47 0050 37850000 		li	a0,32768
  48              	.LVL2:
GAS LISTING /tmp/ccjx7owg.s 			page 2


  49 0054 97000000 		call	_Znam@plt
  49      E7800000 
  50              	.LVL3:
  51              	.L2:
  52              		.loc 1 9 17 discriminator 4
  53 005c 23B8A400 		sd	a0,16(s1)
  10:src/tcb.cpp   **** 
  11:src/tcb.cpp   ****     this->context = {
  54              		.loc 1 11 5 is_stmt 1 discriminator 4
  12:src/tcb.cpp   ****             (uint64)&TCB::threadWrapper,
  13:src/tcb.cpp   ****             (routine != nullptr) ? (uint64)&this->stack[DEFAULT_STACK_SIZE] : 0
  55              		.loc 1 13 34 is_stmt 0 discriminator 4
  56 0060 630E0902 		beqz	s2,.L5
  57              		.loc 1 13 44 discriminator 1
  58 0064 B7870000 		li	a5,32768
  59 0068 3305F500 		add	a0,a0,a5
  60              	.L3:
  11:src/tcb.cpp   ****             (uint64)&TCB::threadWrapper,
  61              		.loc 1 11 19
  62 006c 97070000 		lla	a5,_ZN3TCB13threadWrapperEv
  62      93870700 
  63 0074 23B0F402 		sd	a5,32(s1)
  64 0078 23B4A402 		sd	a0,40(s1)
  65              	.LBE15:
  14:src/tcb.cpp   ****     };
  15:src/tcb.cpp   **** }
  66              		.loc 1 15 1
  67 007c 83308101 		ld	ra,24(sp)
  68              		.cfi_remember_state
  69              		.cfi_restore 1
  70 0080 03340101 		ld	s0,16(sp)
  71              		.cfi_restore 8
  72              		.cfi_def_cfa 2, 32
  73 0084 83348100 		ld	s1,8(sp)
  74              		.cfi_restore 9
  75              	.LVL4:
  76 0088 03390100 		ld	s2,0(sp)
  77              		.cfi_restore 18
  78              	.LVL5:
  79 008c 13010102 		addi	sp,sp,32
  80              		.cfi_def_cfa_offset 0
  81 0090 67800000 		jr	ra
  82              	.LVL6:
  83              	.L4:
  84              		.cfi_restore_state
  85              	.LBB16:
   9:src/tcb.cpp   **** 
  86              		.loc 1 9 40
  87 0094 13050000 		li	a0,0
  88 0098 6FF05FFC 		j	.L2
  89              	.LVL7:
  90              	.L5:
  13:src/tcb.cpp   ****     };
  91              		.loc 1 13 34
  92 009c 13050000 		li	a0,0
  93 00a0 6FF0DFFC 		j	.L3
  94              	.LBE16:
GAS LISTING /tmp/ccjx7owg.s 			page 3


  95              		.cfi_endproc
  96              	.LFE34:
  98              		.globl	_ZN3TCBC1EPFvPvES0_S0_
  99              		.set	_ZN3TCBC1EPFvPvES0_S0_,_ZN3TCBC2EPFvPvES0_S0_
 100              		.align	2
 101              		.globl	_ZN3TCBnwEm
 103              	_ZN3TCBnwEm:
 104              	.LFB36:
  16:src/tcb.cpp   **** 
  17:src/tcb.cpp   **** void *TCB::operator new(size_t size) {
 105              		.loc 1 17 38 is_stmt 1
 106              		.cfi_startproc
 107              	.LVL8:
 108 00a4 130101FF 		addi	sp,sp,-16
 109              		.cfi_def_cfa_offset 16
 110 00a8 23341100 		sd	ra,8(sp)
 111 00ac 23308100 		sd	s0,0(sp)
 112              		.cfi_offset 1, -8
 113              		.cfi_offset 8, -16
 114 00b0 13040101 		addi	s0,sp,16
 115              		.cfi_def_cfa 8, 0
  18:src/tcb.cpp   ****     size_t numOfBlocks=(size + sizeof(MemoryAllocator::FullBlock) + MEM_BLOCK_SIZE - 1) / MEM_BLOCK
 116              		.loc 1 18 5
 117              		.loc 1 18 84 is_stmt 0
 118 00b4 13057505 		addi	a0,a0,87
 119              	.LVL9:
  19:src/tcb.cpp   ****     return MemoryAllocator::mem_alloc(numOfBlocks);
 120              		.loc 1 19 5 is_stmt 1
 121              		.loc 1 19 38 is_stmt 0
 122 00b8 13556500 		srli	a0,a0,6
 123              	.LVL10:
 124 00bc 97000000 		call	_ZN15MemoryAllocator9mem_allocEm@plt
 124      E7800000 
 125              	.LVL11:
  20:src/tcb.cpp   **** }
 126              		.loc 1 20 1
 127 00c4 83308100 		ld	ra,8(sp)
 128              		.cfi_restore 1
 129 00c8 03340100 		ld	s0,0(sp)
 130              		.cfi_restore 8
 131              		.cfi_def_cfa 2, 16
 132 00cc 13010101 		addi	sp,sp,16
 133              		.cfi_def_cfa_offset 0
 134 00d0 67800000 		jr	ra
 135              		.cfi_endproc
 136              	.LFE36:
 138              		.align	2
 139              		.globl	_ZN3TCBdlEPv
 141              	_ZN3TCBdlEPv:
 142              	.LFB37:
  21:src/tcb.cpp   **** 
  22:src/tcb.cpp   **** void TCB::operator delete(void *ptr) {
 143              		.loc 1 22 38 is_stmt 1
 144              		.cfi_startproc
 145              	.LVL12:
 146 00d4 130101FF 		addi	sp,sp,-16
 147              		.cfi_def_cfa_offset 16
GAS LISTING /tmp/ccjx7owg.s 			page 4


 148 00d8 23341100 		sd	ra,8(sp)
 149 00dc 23308100 		sd	s0,0(sp)
 150              		.cfi_offset 1, -8
 151              		.cfi_offset 8, -16
 152 00e0 13040101 		addi	s0,sp,16
 153              		.cfi_def_cfa 8, 0
  23:src/tcb.cpp   ****     MemoryAllocator::mem_free(ptr);
 154              		.loc 1 23 5
 155              		.loc 1 23 30 is_stmt 0
 156 00e4 97000000 		call	_ZN15MemoryAllocator8mem_freeEPv@plt
 156      E7800000 
 157              	.LVL13:
  24:src/tcb.cpp   **** }
 158              		.loc 1 24 1
 159 00ec 83308100 		ld	ra,8(sp)
 160              		.cfi_restore 1
 161 00f0 03340100 		ld	s0,0(sp)
 162              		.cfi_restore 8
 163              		.cfi_def_cfa 2, 16
 164 00f4 13010101 		addi	sp,sp,16
 165              		.cfi_def_cfa_offset 0
 166 00f8 67800000 		jr	ra
 167              		.cfi_endproc
 168              	.LFE37:
 170              		.align	2
 171              		.globl	_ZN3TCB5yieldEPS_S0_
 173              	_ZN3TCB5yieldEPS_S0_:
 174              	.LFB39:
  25:src/tcb.cpp   **** 
  26:src/tcb.cpp   **** void TCB::dispatch(){
  27:src/tcb.cpp   ****     TCB *old=running;
  28:src/tcb.cpp   ****     if (!running->isFinished() && !running->isBlocked()) {
  29:src/tcb.cpp   ****         Scheduler::put(old);
  30:src/tcb.cpp   ****     }
  31:src/tcb.cpp   ****     if (running->isFinished()) delete running;
  32:src/tcb.cpp   ****     running=Scheduler::get();
  33:src/tcb.cpp   ****     /*if(old!=running)*/ yield(old, running);
  34:src/tcb.cpp   **** }
  35:src/tcb.cpp   **** 
  36:src/tcb.cpp   **** void TCB::yield(TCB* oldRunning, TCB* newRunning) {
 175              		.loc 1 36 51 is_stmt 1
 176              		.cfi_startproc
 177              	.LVL14:
 178 00fc 130101FE 		addi	sp,sp,-32
 179              		.cfi_def_cfa_offset 32
 180 0100 233C1100 		sd	ra,24(sp)
 181 0104 23388100 		sd	s0,16(sp)
 182 0108 23349100 		sd	s1,8(sp)
 183              		.cfi_offset 1, -8
 184              		.cfi_offset 8, -16
 185              		.cfi_offset 9, -24
 186 010c 13040102 		addi	s0,sp,32
 187              		.cfi_def_cfa 8, 0
 188 0110 93040500 		mv	s1,a0
  37:src/tcb.cpp   **** 
  38:src/tcb.cpp   ****     Riscv::push();
 189              		.loc 1 38 5
GAS LISTING /tmp/ccjx7owg.s 			page 5


 190              		.loc 1 38 16 is_stmt 0
 191 0114 97000000 		call	_ZN5Riscv4pushEv@plt
 191      E7800000 
 192              	.LVL15:
  39:src/tcb.cpp   ****     contextSwitch(&oldRunning->context, &running->context);
 193              		.loc 1 39 5 is_stmt 1
 194              		.loc 1 39 18 is_stmt 0
 195 011c 97050000 		ld	a1,.LANCHOR0+8
 195      83B50500 
 196 0124 93850502 		addi	a1,a1,32
 197 0128 13850402 		addi	a0,s1,32
 198 012c 97000000 		call	_ZN3TCB13contextSwitchEPNS_7ContextES1_@plt
 198      E7800000 
 199              	.LVL16:
  40:src/tcb.cpp   ****     Riscv::pop();
 200              		.loc 1 40 5 is_stmt 1
 201              		.loc 1 40 15 is_stmt 0
 202 0134 97000000 		call	_ZN5Riscv3popEv@plt
 202      E7800000 
 203              	.LVL17:
  41:src/tcb.cpp   **** }
 204              		.loc 1 41 1
 205 013c 83308101 		ld	ra,24(sp)
 206              		.cfi_restore 1
 207 0140 03340101 		ld	s0,16(sp)
 208              		.cfi_restore 8
 209              		.cfi_def_cfa 2, 32
 210 0144 83348100 		ld	s1,8(sp)
 211              		.cfi_restore 9
 212              	.LVL18:
 213 0148 13010102 		addi	sp,sp,32
 214              		.cfi_def_cfa_offset 0
 215 014c 67800000 		jr	ra
 216              		.cfi_endproc
 217              	.LFE39:
 219              		.align	2
 220              		.globl	_ZN3TCB8dispatchEv
 222              	_ZN3TCB8dispatchEv:
 223              	.LFB38:
  26:src/tcb.cpp   ****     TCB *old=running;
 224              		.loc 1 26 21 is_stmt 1
 225              		.cfi_startproc
 226              		.cfi_personality 0x9b,DW.ref.__gxx_personality_v0
 227              		.cfi_lsda 0x1b,.LLSDA38
 228 0150 130101FE 		addi	sp,sp,-32
 229              		.cfi_def_cfa_offset 32
 230 0154 233C1100 		sd	ra,24(sp)
 231 0158 23388100 		sd	s0,16(sp)
 232 015c 23349100 		sd	s1,8(sp)
 233 0160 23302101 		sd	s2,0(sp)
 234              		.cfi_offset 1, -8
 235              		.cfi_offset 8, -16
 236              		.cfi_offset 9, -24
 237              		.cfi_offset 18, -32
 238 0164 13040102 		addi	s0,sp,32
 239              		.cfi_def_cfa 8, 0
  27:src/tcb.cpp   ****     if (!running->isFinished() && !running->isBlocked()) {
GAS LISTING /tmp/ccjx7owg.s 			page 6


 240              		.loc 1 27 5
  27:src/tcb.cpp   ****     if (!running->isFinished() && !running->isBlocked()) {
 241              		.loc 1 27 10 is_stmt 0
 242 0168 97040000 		ld	s1,.LANCHOR0+8
 242      83B40400 
 243              	.LVL19:
  28:src/tcb.cpp   ****         Scheduler::put(old);
 244              		.loc 1 28 5 is_stmt 1
 245              	.LBB17:
 246              	.LBB18:
 247              		.file 2 "src/../h/tcb.hpp"
   1:src/../h/tcb.hpp **** 
   2:src/../h/tcb.hpp **** 
   3:src/../h/tcb.hpp **** #ifndef PROJECT_BASE_V1_1_TCB_HPP
   4:src/../h/tcb.hpp **** #define PROJECT_BASE_V1_1_TCB_HPP
   5:src/../h/tcb.hpp **** 
   6:src/../h/tcb.hpp **** 
   7:src/../h/tcb.hpp **** #include "../lib/hw.h"
   8:src/../h/tcb.hpp **** #include "Scheduler.hpp"
   9:src/../h/tcb.hpp **** #include "MemoryAllocator.hpp"
  10:src/../h/tcb.hpp **** #include "riscv.hpp"
  11:src/../h/tcb.hpp **** 
  12:src/../h/tcb.hpp **** 
  13:src/../h/tcb.hpp **** using body=void(*)(void*);
  14:src/../h/tcb.hpp **** 
  15:src/../h/tcb.hpp **** class TCB{
  16:src/../h/tcb.hpp **** 
  17:src/../h/tcb.hpp **** private:
  18:src/../h/tcb.hpp **** 
  19:src/../h/tcb.hpp ****     TCB(body routine, void* arg, void * stack);
  20:src/../h/tcb.hpp **** 
  21:src/../h/tcb.hpp ****     struct Context{
  22:src/../h/tcb.hpp ****         uint64 ra;
  23:src/../h/tcb.hpp ****         uint64 sp;
  24:src/../h/tcb.hpp ****     };
  25:src/../h/tcb.hpp **** 
  26:src/../h/tcb.hpp **** 
  27:src/../h/tcb.hpp ****     uint64 t_ID;
  28:src/../h/tcb.hpp ****     body routine;
  29:src/../h/tcb.hpp ****     uint64* stack;
  30:src/../h/tcb.hpp ****     void* arg;
  31:src/../h/tcb.hpp ****     Context context;
  32:src/../h/tcb.hpp ****     bool finished;
  33:src/../h/tcb.hpp ****     bool blocked;
  34:src/../h/tcb.hpp **** 
  35:src/../h/tcb.hpp ****     friend class riscv;
  36:src/../h/tcb.hpp **** 
  37:src/../h/tcb.hpp ****     static void threadWrapper();
  38:src/../h/tcb.hpp **** 
  39:src/../h/tcb.hpp ****     static void contextSwitch(Context *oldContext, Context *runningContext);
  40:src/../h/tcb.hpp **** 
  41:src/../h/tcb.hpp **** public:
  42:src/../h/tcb.hpp **** 
  43:src/../h/tcb.hpp ****     friend class Sem;
  44:src/../h/tcb.hpp ****     static int id;
  45:src/../h/tcb.hpp ****     static TCB* running;
  46:src/../h/tcb.hpp **** 
GAS LISTING /tmp/ccjx7owg.s 			page 7


  47:src/../h/tcb.hpp ****     bool isFinished()  { return finished; }
 248              		.loc 2 47 26
 249              		.loc 2 47 33 is_stmt 0
 250 0170 83C70403 		lbu	a5,48(s1)
 251              	.LVL20:
 252              	.LBE18:
 253              	.LBE17:
  28:src/tcb.cpp   ****         Scheduler::put(old);
 254              		.loc 1 28 32
 255 0174 63960700 		bnez	a5,.L14
 256              	.LVL21:
 257              	.LBB19:
 258              	.LBB20:
  48:src/../h/tcb.hpp **** 
  49:src/../h/tcb.hpp ****     void setFinished(bool value) { finished = value; }
  50:src/../h/tcb.hpp **** 
  51:src/../h/tcb.hpp ****     bool isBlocked()  { return blocked; }
 259              		.loc 2 51 25 is_stmt 1 discriminator 1
 260              		.loc 2 51 32 is_stmt 0 discriminator 1
 261 0178 83C71403 		lbu	a5,49(s1)
 262              	.LVL22:
 263              	.LBE20:
 264              	.LBE19:
  28:src/tcb.cpp   ****         Scheduler::put(old);
 265              		.loc 1 28 32 discriminator 1
 266 017c 63840706 		beqz	a5,.L17
 267              	.L14:
  31:src/tcb.cpp   ****     running=Scheduler::get();
 268              		.loc 1 31 5 is_stmt 1
  31:src/tcb.cpp   ****     running=Scheduler::get();
 269              		.loc 1 31 28 is_stmt 0
 270 0180 17090000 		ld	s2,.LANCHOR0+8
 270      03390900 
 271              	.LVL23:
 272              	.LBB21:
 273              	.LBB22:
  47:src/../h/tcb.hpp **** 
 274              		.loc 2 47 26 is_stmt 1
  47:src/../h/tcb.hpp **** 
 275              		.loc 2 47 33 is_stmt 0
 276 0188 83470903 		lbu	a5,48(s2)
 277              	.LVL24:
 278              	.LBE22:
 279              	.LBE21:
  31:src/tcb.cpp   ****     running=Scheduler::get();
 280              		.loc 1 31 5
 281 018c 63800702 		beqz	a5,.L15
  31:src/tcb.cpp   ****     running=Scheduler::get();
 282              		.loc 1 31 32 is_stmt 1 discriminator 1
  31:src/tcb.cpp   ****     running=Scheduler::get();
 283              		.loc 1 31 46 is_stmt 0 discriminator 1
 284 0190 630E0900 		beqz	s2,.L15
 285              	.LVL25:
 286              	.LBB23:
 287              	.LBB24:
  52:src/../h/tcb.hpp **** 
  53:src/../h/tcb.hpp ****     void setBlocked(bool value) { blocked = value; }
GAS LISTING /tmp/ccjx7owg.s 			page 8


  54:src/../h/tcb.hpp **** 
  55:src/../h/tcb.hpp ****     static int createThread(TCB** handle, body routine, void* arg, void* stack);
  56:src/../h/tcb.hpp ****     static int threadExit();
  57:src/../h/tcb.hpp ****     static void dispatch();
  58:src/../h/tcb.hpp ****     static void yield(TCB*, TCB*);
  59:src/../h/tcb.hpp **** 
  60:src/../h/tcb.hpp ****     ~TCB() { MemoryAllocator::mem_free(this->stack); }
 288              		.loc 2 60 14 is_stmt 1
 289              		.loc 2 60 39 is_stmt 0
 290 0194 03350901 		ld	a0,16(s2)
 291 0198 97000000 		call	_ZN15MemoryAllocator8mem_freeEPv@plt
 291      E7800000 
 292              	.LVL26:
 293              	.LBE24:
 294              	.LBE23:
  31:src/tcb.cpp   ****     running=Scheduler::get();
 295              		.loc 1 31 39
 296 01a0 13050900 		mv	a0,s2
 297              	.LEHB0:
 298 01a4 97000000 		call	_ZN3TCBdlEPv
 298      E7800000 
 299              	.LVL27:
 300              	.L15:
  32:src/tcb.cpp   ****     /*if(old!=running)*/ yield(old, running);
 301              		.loc 1 32 5 is_stmt 1
  32:src/tcb.cpp   ****     /*if(old!=running)*/ yield(old, running);
 302              		.loc 1 32 27 is_stmt 0
 303 01ac 97000000 		call	_ZN9Scheduler3getEv@plt
 303      E7800000 
 304              	.LVL28:
 305 01b4 93050500 		mv	a1,a0
  32:src/tcb.cpp   ****     /*if(old!=running)*/ yield(old, running);
 306              		.loc 1 32 12
 307 01b8 97070000 		sd	a0,.LANCHOR0+8,a5
 307      23B0A700 
  33:src/tcb.cpp   **** }
 308              		.loc 1 33 26 is_stmt 1
  33:src/tcb.cpp   **** }
 309              		.loc 1 33 31 is_stmt 0
 310 01c0 13850400 		mv	a0,s1
 311 01c4 97000000 		call	_ZN3TCB5yieldEPS_S0_
 311      E7800000 
 312              	.LVL29:
  34:src/tcb.cpp   **** 
 313              		.loc 1 34 1
 314 01cc 83308101 		ld	ra,24(sp)
 315              		.cfi_remember_state
 316              		.cfi_restore 1
 317 01d0 03340101 		ld	s0,16(sp)
 318              		.cfi_restore 8
 319              		.cfi_def_cfa 2, 32
 320 01d4 83348100 		ld	s1,8(sp)
 321              		.cfi_restore 9
 322              	.LVL30:
 323 01d8 03390100 		ld	s2,0(sp)
 324              		.cfi_restore 18
 325 01dc 13010102 		addi	sp,sp,32
GAS LISTING /tmp/ccjx7owg.s 			page 9


 326              		.cfi_def_cfa_offset 0
 327 01e0 67800000 		jr	ra
 328              	.LVL31:
 329              	.L17:
 330              		.cfi_restore_state
  29:src/tcb.cpp   ****     }
 331              		.loc 1 29 9 is_stmt 1
  29:src/tcb.cpp   ****     }
 332              		.loc 1 29 23 is_stmt 0
 333 01e4 13850400 		mv	a0,s1
 334 01e8 97000000 		call	_ZN9Scheduler3putEP3TCB@plt
 334      E7800000 
 335              	.LVL32:
 336              	.LEHE0:
 337 01f0 6FF01FF9 		j	.L14
 338              		.cfi_endproc
 339              	.LFE38:
 340              		.globl	__gxx_personality_v0
 341              		.section	.gcc_except_table,"a",@progbits
 342              	.LLSDA38:
 343 0000 FF       		.byte	0xff
 344 0001 FF       		.byte	0xff
 345 0002 03       		.byte	0x3
 346 0003 0D       		.byte	0xd
 347 0004 00000000 		.4byte	.LEHB0-.LFB38
 348 0008 00000000 		.4byte	.LEHE0-.LEHB0
 349 000c 00000000 		.4byte	0
 350 0010 00       		.byte	0
 351              		.text
 353              		.align	2
 354              		.globl	_ZN3TCB12createThreadEPPS_PFvPvES2_S2_
 356              	_ZN3TCB12createThreadEPPS_PFvPvES2_S2_:
 357              	.LFB40:
  42:src/tcb.cpp   **** 
  43:src/tcb.cpp   **** int TCB::createThread(TCB **handle, body routine, void *arg, void *stack)  {
 358              		.loc 1 43 76 is_stmt 1
 359              		.cfi_startproc
 360              		.cfi_personality 0x9b,DW.ref.__gxx_personality_v0
 361              		.cfi_lsda 0x1b,.LLSDA40
 362              	.LVL33:
 363 01f4 130101FC 		addi	sp,sp,-64
 364              		.cfi_def_cfa_offset 64
 365 01f8 233C1102 		sd	ra,56(sp)
 366 01fc 23388102 		sd	s0,48(sp)
 367 0200 23349102 		sd	s1,40(sp)
 368 0204 23302103 		sd	s2,32(sp)
 369 0208 233C3101 		sd	s3,24(sp)
 370 020c 23384101 		sd	s4,16(sp)
 371 0210 23345101 		sd	s5,8(sp)
 372              		.cfi_offset 1, -8
 373              		.cfi_offset 8, -16
 374              		.cfi_offset 9, -24
 375              		.cfi_offset 18, -32
 376              		.cfi_offset 19, -40
 377              		.cfi_offset 20, -48
 378              		.cfi_offset 21, -56
 379 0214 13040104 		addi	s0,sp,64
GAS LISTING /tmp/ccjx7owg.s 			page 10


 380              		.cfi_def_cfa 8, 0
 381 0218 93090500 		mv	s3,a0
 382 021c 13890500 		mv	s2,a1
 383 0220 130A0600 		mv	s4,a2
 384 0224 938A0600 		mv	s5,a3
  44:src/tcb.cpp   ****     if (!(*handle = new TCB(routine, arg, stack))) {
 385              		.loc 1 44 5
 386              		.loc 1 44 48 is_stmt 0
 387 0228 13058003 		li	a0,56
 388              	.LVL34:
 389              	.LEHB1:
 390 022c 97000000 		call	_ZN3TCBnwEm
 390      E7800000 
 391              	.LVL35:
 392              	.LEHE1:
 393 0234 93040500 		mv	s1,a0
 394 0238 93860A00 		mv	a3,s5
 395 023c 13060A00 		mv	a2,s4
 396 0240 93050900 		mv	a1,s2
 397              	.LEHB2:
 398 0244 97000000 		call	_ZN3TCBC1EPFvPvES0_S0_
 398      E7800000 
 399              	.LVL36:
 400              	.LEHE2:
 401              		.loc 1 44 19 discriminator 2
 402 024c 23B09900 		sd	s1,0(s3)
 403              		.loc 1 44 5 discriminator 2
 404 0250 638E0402 		beqz	s1,.L21
  45:src/tcb.cpp   ****         return -1;
  46:src/tcb.cpp   ****     }
  47:src/tcb.cpp   ****     if (routine) {
 405              		.loc 1 47 5 is_stmt 1
 406 0254 63000904 		beqz	s2,.L22
  48:src/tcb.cpp   ****         Scheduler::put(*handle);
 407              		.loc 1 48 9
 408              		.loc 1 48 23 is_stmt 0
 409 0258 13850400 		mv	a0,s1
 410              	.LEHB3:
 411 025c 97000000 		call	_ZN9Scheduler3putEP3TCB@plt
 411      E7800000 
 412              	.LVL37:
 413              	.LEHE3:
  49:src/tcb.cpp   ****     }
  50:src/tcb.cpp   ****     return 0;
 414              		.loc 1 50 12
 415 0264 13050000 		li	a0,0
 416              	.L24:
  51:src/tcb.cpp   **** }
 417              		.loc 1 51 1
 418 0268 83308103 		ld	ra,56(sp)
 419              		.cfi_remember_state
 420              		.cfi_restore 1
 421 026c 03340103 		ld	s0,48(sp)
 422              		.cfi_restore 8
 423              		.cfi_def_cfa 2, 64
 424 0270 83348102 		ld	s1,40(sp)
 425              		.cfi_restore 9
GAS LISTING /tmp/ccjx7owg.s 			page 11


 426 0274 03390102 		ld	s2,32(sp)
 427              		.cfi_restore 18
 428              	.LVL38:
 429 0278 83398101 		ld	s3,24(sp)
 430              		.cfi_restore 19
 431              	.LVL39:
 432 027c 033A0101 		ld	s4,16(sp)
 433              		.cfi_restore 20
 434              	.LVL40:
 435 0280 833A8100 		ld	s5,8(sp)
 436              		.cfi_restore 21
 437              	.LVL41:
 438 0284 13010104 		addi	sp,sp,64
 439              		.cfi_def_cfa_offset 0
 440 0288 67800000 		jr	ra
 441              	.LVL42:
 442              	.L21:
 443              		.cfi_restore_state
  45:src/tcb.cpp   ****     }
 444              		.loc 1 45 17
 445 028c 1305F0FF 		li	a0,-1
 446 0290 6FF09FFD 		j	.L24
 447              	.L22:
  50:src/tcb.cpp   **** }
 448              		.loc 1 50 12
 449 0294 13050000 		li	a0,0
 450 0298 6FF01FFD 		j	.L24
 451              	.L23:
 452 029c 13090500 		mv	s2,a0
 453              	.LVL43:
  44:src/tcb.cpp   ****         return -1;
 454              		.loc 1 44 48
 455 02a0 13850400 		mv	a0,s1
 456 02a4 97000000 		call	_ZN3TCBdlEPv
 456      E7800000 
 457              	.LVL44:
 458 02ac 13050900 		mv	a0,s2
 459              	.LEHB4:
 460 02b0 97000000 		call	_Unwind_Resume@plt
 460      E7800000 
 461              	.LVL45:
 462              	.LEHE4:
 463              		.cfi_endproc
 464              	.LFE40:
 465              		.section	.gcc_except_table
 466              	.LLSDA40:
 467 0011 FF       		.byte	0xff
 468 0012 FF       		.byte	0xff
 469 0013 03       		.byte	0x3
 470 0014 34       		.byte	0x34
 471 0015 00000000 		.4byte	.LEHB1-.LFB40
 472 0019 00000000 		.4byte	.LEHE1-.LEHB1
 473 001d 00000000 		.4byte	0
 474 0021 00       		.byte	0
 475 0022 00000000 		.4byte	.LEHB2-.LFB40
 476 0026 00000000 		.4byte	.LEHE2-.LEHB2
 477 002a 00000000 		.4byte	.L23-.LFB40
GAS LISTING /tmp/ccjx7owg.s 			page 12


 478 002e 00       		.byte	0
 479 002f 00000000 		.4byte	.LEHB3-.LFB40
 480 0033 00000000 		.4byte	.LEHE3-.LEHB3
 481 0037 00000000 		.4byte	0
 482 003b 00       		.byte	0
 483 003c 00000000 		.4byte	.LEHB4-.LFB40
 484 0040 00000000 		.4byte	.LEHE4-.LEHB4
 485 0044 00000000 		.4byte	0
 486 0048 00       		.byte	0
 487              		.text
 489              		.align	2
 490              		.globl	_ZN3TCB10threadExitEv
 492              	_ZN3TCB10threadExitEv:
 493              	.LFB41:
  52:src/tcb.cpp   **** 
  53:src/tcb.cpp   **** int TCB::threadExit() {
 494              		.loc 1 53 23 is_stmt 1
 495              		.cfi_startproc
  54:src/tcb.cpp   ****     if(!running || !running->isFinished()) return -1;
 496              		.loc 1 54 5
 497              		.loc 1 54 8 is_stmt 0
 498 02b8 97070000 		ld	a5,.LANCHOR0+8
 498      83B70700 
 499              		.loc 1 54 17
 500 02c0 638C0702 		beqz	a5,.L28
 501              	.LVL46:
 502              	.LBB25:
 503              	.LBB26:
  47:src/../h/tcb.hpp **** 
 504              		.loc 2 47 26 is_stmt 1 discriminator 2
  47:src/../h/tcb.hpp **** 
 505              		.loc 2 47 33 is_stmt 0 discriminator 2
 506 02c4 83C70703 		lbu	a5,48(a5)
 507              	.LVL47:
 508              	.LBE26:
 509              	.LBE25:
 510              		.loc 1 54 17 discriminator 2
 511 02c8 638C0702 		beqz	a5,.L29
  53:src/tcb.cpp   ****     if(!running || !running->isFinished()) return -1;
 512              		.loc 1 53 23
 513 02cc 130101FF 		addi	sp,sp,-16
 514              		.cfi_def_cfa_offset 16
 515 02d0 23341100 		sd	ra,8(sp)
 516 02d4 23308100 		sd	s0,0(sp)
 517              		.cfi_offset 1, -8
 518              		.cfi_offset 8, -16
 519 02d8 13040101 		addi	s0,sp,16
 520              		.cfi_def_cfa 8, 0
  55:src/tcb.cpp   ****     thread_dispatch();
 521              		.loc 1 55 5 is_stmt 1
 522              		.loc 1 55 20 is_stmt 0
 523 02dc 97000000 		call	_Z15thread_dispatchv@plt
 523      E7800000 
 524              	.LVL48:
  56:src/tcb.cpp   ****     return 0;
 525              		.loc 1 56 5 is_stmt 1
 526              		.loc 1 56 12 is_stmt 0
GAS LISTING /tmp/ccjx7owg.s 			page 13


 527 02e4 13050000 		li	a0,0
  57:src/tcb.cpp   **** }
 528              		.loc 1 57 1
 529 02e8 83308100 		ld	ra,8(sp)
 530              		.cfi_restore 1
 531 02ec 03340100 		ld	s0,0(sp)
 532              		.cfi_restore 8
 533              		.cfi_def_cfa 2, 16
 534 02f0 13010101 		addi	sp,sp,16
 535              		.cfi_def_cfa_offset 0
 536 02f4 67800000 		jr	ra
 537              	.L28:
  54:src/tcb.cpp   ****     thread_dispatch();
 538              		.loc 1 54 52
 539 02f8 1305F0FF 		li	a0,-1
 540 02fc 67800000 		ret
 541              	.L29:
 542 0300 1305F0FF 		li	a0,-1
 543              		.loc 1 57 1
 544 0304 67800000 		ret
 545              		.cfi_endproc
 546              	.LFE41:
 548              		.align	2
 549              		.globl	_ZN3TCB13threadWrapperEv
 551              	_ZN3TCB13threadWrapperEv:
 552              	.LFB42:
  58:src/tcb.cpp   **** 
  59:src/tcb.cpp   **** void TCB::threadWrapper() {
 553              		.loc 1 59 27 is_stmt 1
 554              		.cfi_startproc
 555 0308 130101FE 		addi	sp,sp,-32
 556              		.cfi_def_cfa_offset 32
 557 030c 233C1100 		sd	ra,24(sp)
 558 0310 23388100 		sd	s0,16(sp)
 559 0314 23349100 		sd	s1,8(sp)
 560              		.cfi_offset 1, -8
 561              		.cfi_offset 8, -16
 562              		.cfi_offset 9, -24
 563 0318 13040102 		addi	s0,sp,32
 564              		.cfi_def_cfa 8, 0
  60:src/tcb.cpp   ****     if (running->routine) {
 565              		.loc 1 60 5
 566              		.loc 1 60 18 is_stmt 0
 567 031c 97070000 		ld	a5,.LANCHOR0+8
 567      83B70700 
 568 0324 83B78700 		ld	a5,8(a5)
 569              		.loc 1 60 5
 570 0328 63880702 		beqz	a5,.L35
  61:src/tcb.cpp   ****         Riscv::popSppSpie();
 571              		.loc 1 61 9 is_stmt 1
 572              		.loc 1 61 26 is_stmt 0
 573 032c 97000000 		call	_ZN5Riscv10popSppSpieEv@plt
 573      E7800000 
 574              	.LVL49:
  62:src/tcb.cpp   ****         running->routine(running->arg);
 575              		.loc 1 62 9 is_stmt 1
 576              		.loc 1 62 18 is_stmt 0
GAS LISTING /tmp/ccjx7owg.s 			page 14


 577 0334 97040000 		lla	s1,.LANCHOR0
 577      93840400 
 578 033c 83B78400 		ld	a5,8(s1)
 579 0340 03B78700 		ld	a4,8(a5)
 580              		.loc 1 62 25
 581 0344 03B58701 		ld	a0,24(a5)
 582 0348 E7000700 		jalr	a4
 583              	.LVL50:
  63:src/tcb.cpp   ****         running->setFinished(true);
 584              		.loc 1 63 9 is_stmt 1
 585              		.loc 1 63 29 is_stmt 0
 586 034c 83B78400 		ld	a5,8(s1)
 587              	.LVL51:
 588              	.LBB27:
 589              	.LBB28:
  49:src/../h/tcb.hpp **** 
 590              		.loc 2 49 36 is_stmt 1
  49:src/../h/tcb.hpp **** 
 591              		.loc 2 49 45 is_stmt 0
 592 0350 13071000 		li	a4,1
 593 0354 2388E702 		sb	a4,48(a5)
 594              	.LVL52:
 595              	.L35:
 596              	.LBE28:
 597              	.LBE27:
  64:src/tcb.cpp   ****     }
  65:src/tcb.cpp   ****     TCB::threadExit();
 598              		.loc 1 65 5 is_stmt 1
 599              		.loc 1 65 20 is_stmt 0
 600 0358 97000000 		call	_ZN3TCB10threadExitEv
 600      E7800000 
 601              	.LVL53:
  66:src/tcb.cpp   **** }
 602              		.loc 1 66 1
 603 0360 83308101 		ld	ra,24(sp)
 604              		.cfi_restore 1
 605 0364 03340101 		ld	s0,16(sp)
 606              		.cfi_restore 8
 607              		.cfi_def_cfa 2, 32
 608 0368 83348100 		ld	s1,8(sp)
 609              		.cfi_restore 9
 610 036c 13010102 		addi	sp,sp,32
 611              		.cfi_def_cfa_offset 0
 612 0370 67800000 		jr	ra
 613              		.cfi_endproc
 614              	.LFE42:
 616              		.globl	_ZN3TCB7runningE
 617              		.globl	_ZN3TCB2idE
 618              		.bss
 619              		.align	3
 620              		.set	.LANCHOR0,. + 0
 623              	_ZN3TCB2idE:
 624 0000 00000000 		.zero	4
 625 0004 00000000 		.zero	4
 628              	_ZN3TCB7runningE:
 629 0008 00000000 		.zero	8
 629      00000000 
GAS LISTING /tmp/ccjx7owg.s 			page 15


 630              		.text
 631              	.Letext0:
 632              		.file 3 "src/../h/../lib/hw.h"
 633              		.file 4 "src/../h/MemoryAllocator.hpp"
 634              		.file 5 "src/../h/Scheduler.hpp"
 635              		.file 6 "src/../h/riscv.hpp"
 636              		.file 7 "src/../h/../h/SyscallC.hpp"
 3823              		.align	3
 3826              	DW.ref.__gxx_personality_v0:
 3827 0000 00000000 		.dword	__gxx_personality_v0
 3827      00000000 
 3828              		.ident	"GCC: (Ubuntu 9.4.0-1ubuntu1~20.04) 9.4.0"
 3829              		.section	.note.GNU-stack,"",@progbits
GAS LISTING /tmp/ccjx7owg.s 			page 16


DEFINED SYMBOLS
                            *ABS*:0000000000000000 tcb.cpp
     /tmp/ccjx7owg.s:9      .text:0000000000000000 _ZN3TCBC2EPFvPvES0_S0_
     /tmp/ccjx7owg.s:13     .text:0000000000000000 .L0 
     /tmp/ccjx7owg.s:15     .text:0000000000000000 .L0 
     /tmp/ccjx7owg.s:16     .text:0000000000000004 .L0 
     /tmp/ccjx7owg.s:21     .text:0000000000000014 .L0 
     /tmp/ccjx7owg.s:22     .text:0000000000000014 .L0 
     /tmp/ccjx7owg.s:23     .text:0000000000000014 .L0 
     /tmp/ccjx7owg.s:24     .text:0000000000000014 .L0 
     /tmp/ccjx7owg.s:26     .text:0000000000000018 .L0 
     /tmp/ccjx7owg.s:31     .text:0000000000000020 .L0 
     /tmp/ccjx7owg.s:37     .text:0000000000000034 .L0 
     /tmp/ccjx7owg.s:44     .text:000000000000004c .L0 
     /tmp/ccjx7owg.s:45     .text:000000000000004c .L0 
     /tmp/ccjx7owg.s:47     .text:0000000000000050 .L0 
     /tmp/ccjx7owg.s:53     .text:000000000000005c .L0 
     /tmp/ccjx7owg.s:55     .text:0000000000000060 .L0 
     /tmp/ccjx7owg.s:56     .text:0000000000000060 .L0 
     /tmp/ccjx7owg.s:58     .text:0000000000000064 .L0 
     /tmp/ccjx7owg.s:551    .text:0000000000000308 _ZN3TCB13threadWrapperEv
     /tmp/ccjx7owg.s:62     .text:000000000000006c .L0 
     /tmp/ccjx7owg.s:67     .text:000000000000007c .L0 
     /tmp/ccjx7owg.s:68     .text:0000000000000080 .L0 
     /tmp/ccjx7owg.s:69     .text:0000000000000080 .L0 
     /tmp/ccjx7owg.s:71     .text:0000000000000084 .L0 
     /tmp/ccjx7owg.s:72     .text:0000000000000084 .L0 
     /tmp/ccjx7owg.s:74     .text:0000000000000088 .L0 
     /tmp/ccjx7owg.s:77     .text:000000000000008c .L0 
     /tmp/ccjx7owg.s:80     .text:0000000000000090 .L0 
     /tmp/ccjx7owg.s:84     .text:0000000000000094 .L0 
     /tmp/ccjx7owg.s:87     .text:0000000000000094 .L0 
     /tmp/ccjx7owg.s:92     .text:000000000000009c .L0 
     /tmp/ccjx7owg.s:95     .text:00000000000000a4 .L0 
     /tmp/ccjx7owg.s:9      .text:0000000000000000 _ZN3TCBC1EPFvPvES0_S0_
     /tmp/ccjx7owg.s:103    .text:00000000000000a4 _ZN3TCBnwEm
     /tmp/ccjx7owg.s:106    .text:00000000000000a4 .L0 
     /tmp/ccjx7owg.s:108    .text:00000000000000a4 .L0 
     /tmp/ccjx7owg.s:109    .text:00000000000000a8 .L0 
     /tmp/ccjx7owg.s:112    .text:00000000000000b0 .L0 
     /tmp/ccjx7owg.s:113    .text:00000000000000b0 .L0 
     /tmp/ccjx7owg.s:115    .text:00000000000000b4 .L0 
     /tmp/ccjx7owg.s:117    .text:00000000000000b4 .L0 
     /tmp/ccjx7owg.s:118    .text:00000000000000b4 .L0 
     /tmp/ccjx7owg.s:121    .text:00000000000000b8 .L0 
     /tmp/ccjx7owg.s:122    .text:00000000000000b8 .L0 
     /tmp/ccjx7owg.s:127    .text:00000000000000c4 .L0 
     /tmp/ccjx7owg.s:128    .text:00000000000000c8 .L0 
     /tmp/ccjx7owg.s:130    .text:00000000000000cc .L0 
     /tmp/ccjx7owg.s:131    .text:00000000000000cc .L0 
     /tmp/ccjx7owg.s:133    .text:00000000000000d0 .L0 
     /tmp/ccjx7owg.s:135    .text:00000000000000d4 .L0 
     /tmp/ccjx7owg.s:141    .text:00000000000000d4 _ZN3TCBdlEPv
     /tmp/ccjx7owg.s:144    .text:00000000000000d4 .L0 
     /tmp/ccjx7owg.s:146    .text:00000000000000d4 .L0 
     /tmp/ccjx7owg.s:147    .text:00000000000000d8 .L0 
     /tmp/ccjx7owg.s:150    .text:00000000000000e0 .L0 
GAS LISTING /tmp/ccjx7owg.s 			page 17


     /tmp/ccjx7owg.s:151    .text:00000000000000e0 .L0 
     /tmp/ccjx7owg.s:153    .text:00000000000000e4 .L0 
     /tmp/ccjx7owg.s:155    .text:00000000000000e4 .L0 
     /tmp/ccjx7owg.s:156    .text:00000000000000e4 .L0 
     /tmp/ccjx7owg.s:159    .text:00000000000000ec .L0 
     /tmp/ccjx7owg.s:160    .text:00000000000000f0 .L0 
     /tmp/ccjx7owg.s:162    .text:00000000000000f4 .L0 
     /tmp/ccjx7owg.s:163    .text:00000000000000f4 .L0 
     /tmp/ccjx7owg.s:165    .text:00000000000000f8 .L0 
     /tmp/ccjx7owg.s:167    .text:00000000000000fc .L0 
     /tmp/ccjx7owg.s:173    .text:00000000000000fc _ZN3TCB5yieldEPS_S0_
     /tmp/ccjx7owg.s:176    .text:00000000000000fc .L0 
     /tmp/ccjx7owg.s:178    .text:00000000000000fc .L0 
     /tmp/ccjx7owg.s:179    .text:0000000000000100 .L0 
     /tmp/ccjx7owg.s:183    .text:000000000000010c .L0 
     /tmp/ccjx7owg.s:184    .text:000000000000010c .L0 
     /tmp/ccjx7owg.s:185    .text:000000000000010c .L0 
     /tmp/ccjx7owg.s:187    .text:0000000000000110 .L0 
     /tmp/ccjx7owg.s:190    .text:0000000000000114 .L0 
     /tmp/ccjx7owg.s:191    .text:0000000000000114 .L0 
     /tmp/ccjx7owg.s:194    .text:000000000000011c .L0 
     /tmp/ccjx7owg.s:195    .text:000000000000011c .L0 
     /tmp/ccjx7owg.s:201    .text:0000000000000134 .L0 
     /tmp/ccjx7owg.s:202    .text:0000000000000134 .L0 
     /tmp/ccjx7owg.s:205    .text:000000000000013c .L0 
     /tmp/ccjx7owg.s:206    .text:0000000000000140 .L0 
     /tmp/ccjx7owg.s:208    .text:0000000000000144 .L0 
     /tmp/ccjx7owg.s:209    .text:0000000000000144 .L0 
     /tmp/ccjx7owg.s:211    .text:0000000000000148 .L0 
     /tmp/ccjx7owg.s:214    .text:000000000000014c .L0 
     /tmp/ccjx7owg.s:216    .text:0000000000000150 .L0 
     /tmp/ccjx7owg.s:222    .text:0000000000000150 _ZN3TCB8dispatchEv
     /tmp/ccjx7owg.s:225    .text:0000000000000150 .L0 
     /tmp/ccjx7owg.s:3826   .data.rel.local.DW.ref.__gxx_personality_v0:0000000000000000 DW.ref.__gxx_personality_v0
     /tmp/ccjx7owg.s:228    .text:0000000000000150 .L0 
     /tmp/ccjx7owg.s:229    .text:0000000000000154 .L0 
     /tmp/ccjx7owg.s:234    .text:0000000000000164 .L0 
     /tmp/ccjx7owg.s:235    .text:0000000000000164 .L0 
     /tmp/ccjx7owg.s:236    .text:0000000000000164 .L0 
     /tmp/ccjx7owg.s:237    .text:0000000000000164 .L0 
     /tmp/ccjx7owg.s:239    .text:0000000000000168 .L0 
     /tmp/ccjx7owg.s:241    .text:0000000000000168 .L0 
     /tmp/ccjx7owg.s:242    .text:0000000000000168 .L0 
     /tmp/ccjx7owg.s:248    .text:0000000000000170 .L0 
     /tmp/ccjx7owg.s:249    .text:0000000000000170 .L0 
     /tmp/ccjx7owg.s:250    .text:0000000000000170 .L0 
     /tmp/ccjx7owg.s:255    .text:0000000000000174 .L0 
     /tmp/ccjx7owg.s:260    .text:0000000000000178 .L0 
     /tmp/ccjx7owg.s:261    .text:0000000000000178 .L0 
     /tmp/ccjx7owg.s:266    .text:000000000000017c .L0 
     /tmp/ccjx7owg.s:269    .text:0000000000000180 .L0 
     /tmp/ccjx7owg.s:270    .text:0000000000000180 .L0 
     /tmp/ccjx7owg.s:275    .text:0000000000000188 .L0 
     /tmp/ccjx7owg.s:276    .text:0000000000000188 .L0 
     /tmp/ccjx7owg.s:281    .text:000000000000018c .L0 
     /tmp/ccjx7owg.s:283    .text:0000000000000190 .L0 
     /tmp/ccjx7owg.s:284    .text:0000000000000190 .L0 
GAS LISTING /tmp/ccjx7owg.s 			page 18


     /tmp/ccjx7owg.s:289    .text:0000000000000194 .L0 
     /tmp/ccjx7owg.s:290    .text:0000000000000194 .L0 
     /tmp/ccjx7owg.s:296    .text:00000000000001a0 .L0 
     /tmp/ccjx7owg.s:302    .text:00000000000001ac .L0 
     /tmp/ccjx7owg.s:303    .text:00000000000001ac .L0 
     /tmp/ccjx7owg.s:307    .text:00000000000001b8 .L0 
     /tmp/ccjx7owg.s:309    .text:00000000000001c0 .L0 
     /tmp/ccjx7owg.s:310    .text:00000000000001c0 .L0 
     /tmp/ccjx7owg.s:314    .text:00000000000001cc .L0 
     /tmp/ccjx7owg.s:315    .text:00000000000001d0 .L0 
     /tmp/ccjx7owg.s:316    .text:00000000000001d0 .L0 
     /tmp/ccjx7owg.s:318    .text:00000000000001d4 .L0 
     /tmp/ccjx7owg.s:319    .text:00000000000001d4 .L0 
     /tmp/ccjx7owg.s:321    .text:00000000000001d8 .L0 
     /tmp/ccjx7owg.s:324    .text:00000000000001dc .L0 
     /tmp/ccjx7owg.s:326    .text:00000000000001e0 .L0 
     /tmp/ccjx7owg.s:330    .text:00000000000001e4 .L0 
     /tmp/ccjx7owg.s:332    .text:00000000000001e4 .L0 
     /tmp/ccjx7owg.s:333    .text:00000000000001e4 .L0 
     /tmp/ccjx7owg.s:338    .text:00000000000001f4 .L0 
     /tmp/ccjx7owg.s:356    .text:00000000000001f4 _ZN3TCB12createThreadEPPS_PFvPvES2_S2_
     /tmp/ccjx7owg.s:359    .text:00000000000001f4 .L0 
     /tmp/ccjx7owg.s:363    .text:00000000000001f4 .L0 
     /tmp/ccjx7owg.s:364    .text:00000000000001f8 .L0 
     /tmp/ccjx7owg.s:372    .text:0000000000000214 .L0 
     /tmp/ccjx7owg.s:373    .text:0000000000000214 .L0 
     /tmp/ccjx7owg.s:374    .text:0000000000000214 .L0 
     /tmp/ccjx7owg.s:375    .text:0000000000000214 .L0 
     /tmp/ccjx7owg.s:376    .text:0000000000000214 .L0 
     /tmp/ccjx7owg.s:377    .text:0000000000000214 .L0 
     /tmp/ccjx7owg.s:378    .text:0000000000000214 .L0 
     /tmp/ccjx7owg.s:380    .text:0000000000000218 .L0 
     /tmp/ccjx7owg.s:386    .text:0000000000000228 .L0 
     /tmp/ccjx7owg.s:387    .text:0000000000000228 .L0 
     /tmp/ccjx7owg.s:402    .text:000000000000024c .L0 
     /tmp/ccjx7owg.s:404    .text:0000000000000250 .L0 
     /tmp/ccjx7owg.s:406    .text:0000000000000254 .L0 
     /tmp/ccjx7owg.s:408    .text:0000000000000258 .L0 
     /tmp/ccjx7owg.s:409    .text:0000000000000258 .L0 
     /tmp/ccjx7owg.s:415    .text:0000000000000264 .L0 
     /tmp/ccjx7owg.s:418    .text:0000000000000268 .L0 
     /tmp/ccjx7owg.s:419    .text:000000000000026c .L0 
     /tmp/ccjx7owg.s:420    .text:000000000000026c .L0 
     /tmp/ccjx7owg.s:422    .text:0000000000000270 .L0 
     /tmp/ccjx7owg.s:423    .text:0000000000000270 .L0 
     /tmp/ccjx7owg.s:425    .text:0000000000000274 .L0 
     /tmp/ccjx7owg.s:427    .text:0000000000000278 .L0 
     /tmp/ccjx7owg.s:430    .text:000000000000027c .L0 
     /tmp/ccjx7owg.s:433    .text:0000000000000280 .L0 
     /tmp/ccjx7owg.s:436    .text:0000000000000284 .L0 
     /tmp/ccjx7owg.s:439    .text:0000000000000288 .L0 
     /tmp/ccjx7owg.s:443    .text:000000000000028c .L0 
     /tmp/ccjx7owg.s:445    .text:000000000000028c .L0 
     /tmp/ccjx7owg.s:449    .text:0000000000000294 .L0 
     /tmp/ccjx7owg.s:455    .text:00000000000002a0 .L0 
     /tmp/ccjx7owg.s:463    .text:00000000000002b8 .L0 
     /tmp/ccjx7owg.s:492    .text:00000000000002b8 _ZN3TCB10threadExitEv
GAS LISTING /tmp/ccjx7owg.s 			page 19


     /tmp/ccjx7owg.s:495    .text:00000000000002b8 .L0 
     /tmp/ccjx7owg.s:496    .text:00000000000002b8 .L0 
     /tmp/ccjx7owg.s:497    .text:00000000000002b8 .L0 
     /tmp/ccjx7owg.s:498    .text:00000000000002b8 .L0 
     /tmp/ccjx7owg.s:500    .text:00000000000002c0 .L0 
     /tmp/ccjx7owg.s:505    .text:00000000000002c4 .L0 
     /tmp/ccjx7owg.s:506    .text:00000000000002c4 .L0 
     /tmp/ccjx7owg.s:511    .text:00000000000002c8 .L0 
     /tmp/ccjx7owg.s:513    .text:00000000000002cc .L0 
     /tmp/ccjx7owg.s:514    .text:00000000000002d0 .L0 
     /tmp/ccjx7owg.s:517    .text:00000000000002d8 .L0 
     /tmp/ccjx7owg.s:518    .text:00000000000002d8 .L0 
     /tmp/ccjx7owg.s:520    .text:00000000000002dc .L0 
     /tmp/ccjx7owg.s:522    .text:00000000000002dc .L0 
     /tmp/ccjx7owg.s:523    .text:00000000000002dc .L0 
     /tmp/ccjx7owg.s:526    .text:00000000000002e4 .L0 
     /tmp/ccjx7owg.s:527    .text:00000000000002e4 .L0 
     /tmp/ccjx7owg.s:529    .text:00000000000002e8 .L0 
     /tmp/ccjx7owg.s:530    .text:00000000000002ec .L0 
     /tmp/ccjx7owg.s:532    .text:00000000000002f0 .L0 
     /tmp/ccjx7owg.s:533    .text:00000000000002f0 .L0 
     /tmp/ccjx7owg.s:535    .text:00000000000002f4 .L0 
     /tmp/ccjx7owg.s:539    .text:00000000000002f8 .L0 
     /tmp/ccjx7owg.s:544    .text:0000000000000304 .L0 
     /tmp/ccjx7owg.s:545    .text:0000000000000308 .L0 
     /tmp/ccjx7owg.s:554    .text:0000000000000308 .L0 
     /tmp/ccjx7owg.s:555    .text:0000000000000308 .L0 
     /tmp/ccjx7owg.s:556    .text:000000000000030c .L0 
     /tmp/ccjx7owg.s:560    .text:0000000000000318 .L0 
     /tmp/ccjx7owg.s:561    .text:0000000000000318 .L0 
     /tmp/ccjx7owg.s:562    .text:0000000000000318 .L0 
     /tmp/ccjx7owg.s:564    .text:000000000000031c .L0 
     /tmp/ccjx7owg.s:566    .text:000000000000031c .L0 
     /tmp/ccjx7owg.s:567    .text:000000000000031c .L0 
     /tmp/ccjx7owg.s:570    .text:0000000000000328 .L0 
     /tmp/ccjx7owg.s:572    .text:000000000000032c .L0 
     /tmp/ccjx7owg.s:573    .text:000000000000032c .L0 
     /tmp/ccjx7owg.s:576    .text:0000000000000334 .L0 
     /tmp/ccjx7owg.s:577    .text:0000000000000334 .L0 
     /tmp/ccjx7owg.s:581    .text:0000000000000344 .L0 
     /tmp/ccjx7owg.s:585    .text:000000000000034c .L0 
     /tmp/ccjx7owg.s:586    .text:000000000000034c .L0 
     /tmp/ccjx7owg.s:591    .text:0000000000000350 .L0 
     /tmp/ccjx7owg.s:592    .text:0000000000000350 .L0 
     /tmp/ccjx7owg.s:599    .text:0000000000000358 .L0 
     /tmp/ccjx7owg.s:600    .text:0000000000000358 .L0 
     /tmp/ccjx7owg.s:603    .text:0000000000000360 .L0 
     /tmp/ccjx7owg.s:604    .text:0000000000000364 .L0 
     /tmp/ccjx7owg.s:606    .text:0000000000000368 .L0 
     /tmp/ccjx7owg.s:607    .text:0000000000000368 .L0 
     /tmp/ccjx7owg.s:609    .text:000000000000036c .L0 
     /tmp/ccjx7owg.s:611    .text:0000000000000370 .L0 
     /tmp/ccjx7owg.s:613    .text:0000000000000374 .L0 
     /tmp/ccjx7owg.s:628    .bss:0000000000000008 _ZN3TCB7runningE
     /tmp/ccjx7owg.s:623    .bss:0000000000000000 _ZN3TCB2idE
     /tmp/ccjx7owg.s:620    .bss:0000000000000000 .LANCHOR0
     /tmp/ccjx7owg.s:637    .text:0000000000000374 .L0 
GAS LISTING /tmp/ccjx7owg.s 			page 20


     /tmp/ccjx7owg.s:31     .text:0000000000000020 .L0 
     /tmp/ccjx7owg.s:62     .text:000000000000006c .L0 
     /tmp/ccjx7owg.s:195    .text:000000000000011c .L0 
     /tmp/ccjx7owg.s:242    .text:0000000000000168 .L0 
     /tmp/ccjx7owg.s:270    .text:0000000000000180 .L0 
     /tmp/ccjx7owg.s:307    .text:00000000000001b8 .L0 
     /tmp/ccjx7owg.s:498    .text:00000000000002b8 .L0 
     /tmp/ccjx7owg.s:567    .text:000000000000031c .L0 
     /tmp/ccjx7owg.s:577    .text:0000000000000334 .L0 
     /tmp/ccjx7owg.s:83     .text:0000000000000094 .L4
     /tmp/ccjx7owg.s:90     .text:000000000000009c .L5
     /tmp/ccjx7owg.s:51     .text:000000000000005c .L2
     /tmp/ccjx7owg.s:60     .text:000000000000006c .L3
     /tmp/ccjx7owg.s:267    .text:0000000000000180 .L14
     /tmp/ccjx7owg.s:329    .text:00000000000001e4 .L17
     /tmp/ccjx7owg.s:300    .text:00000000000001ac .L15
     /tmp/ccjx7owg.s:442    .text:000000000000028c .L21
     /tmp/ccjx7owg.s:447    .text:0000000000000294 .L22
     /tmp/ccjx7owg.s:416    .text:0000000000000268 .L24
     /tmp/ccjx7owg.s:537    .text:00000000000002f8 .L28
     /tmp/ccjx7owg.s:541    .text:0000000000000300 .L29
     /tmp/ccjx7owg.s:595    .text:0000000000000358 .L35
     /tmp/ccjx7owg.s:297    .text:00000000000001a4 .LEHB0
     /tmp/ccjx7owg.s:223    .text:0000000000000150 .LFB38
     /tmp/ccjx7owg.s:336    .text:00000000000001f0 .LEHE0
     /tmp/ccjx7owg.s:389    .text:000000000000022c .LEHB1
     /tmp/ccjx7owg.s:357    .text:00000000000001f4 .LFB40
     /tmp/ccjx7owg.s:392    .text:0000000000000234 .LEHE1
     /tmp/ccjx7owg.s:397    .text:0000000000000244 .LEHB2
     /tmp/ccjx7owg.s:400    .text:000000000000024c .LEHE2
     /tmp/ccjx7owg.s:451    .text:000000000000029c .L23
     /tmp/ccjx7owg.s:410    .text:000000000000025c .LEHB3
     /tmp/ccjx7owg.s:413    .text:0000000000000264 .LEHE3
     /tmp/ccjx7owg.s:459    .text:00000000000002b0 .LEHB4
     /tmp/ccjx7owg.s:462    .text:00000000000002b8 .LEHE4
     /tmp/ccjx7owg.s:2059   .debug_abbrev:0000000000000000 .Ldebug_abbrev0
     /tmp/ccjx7owg.s:3764   .debug_str:0000000000000712 .LASF129
     /tmp/ccjx7owg.s:3660   .debug_str:0000000000000430 .LASF130
     /tmp/ccjx7owg.s:3578   .debug_str:000000000000014e .LASF131
     /tmp/ccjx7owg.s:5      .text:0000000000000000 .Ltext0
     /tmp/ccjx7owg.s:631    .text:0000000000000374 .Letext0
     /tmp/ccjx7owg.s:3530   .debug_line:0000000000000000 .Ldebug_line0
     /tmp/ccjx7owg.s:3682   .debug_str:00000000000004fe .LASF0
     /tmp/ccjx7owg.s:3698   .debug_str:000000000000055a .LASF1
     /tmp/ccjx7owg.s:3664   .debug_str:0000000000000445 .LASF2
     /tmp/ccjx7owg.s:3632   .debug_str:0000000000000347 .LASF4
     /tmp/ccjx7owg.s:3742   .debug_str:0000000000000660 .LASF3
     /tmp/ccjx7owg.s:3554   .debug_str:0000000000000080 .LASF5
     /tmp/ccjx7owg.s:3702   .debug_str:0000000000000574 .LASF6
     /tmp/ccjx7owg.s:3680   .debug_str:00000000000004eb .LASF7
     /tmp/ccjx7owg.s:3786   .debug_str:0000000000000872 .LASF8
     /tmp/ccjx7owg.s:3614   .debug_str:0000000000000290 .LASF9
     /tmp/ccjx7owg.s:3714   .debug_str:00000000000005bb .LASF10
     /tmp/ccjx7owg.s:3768   .debug_str:00000000000007e8 .LASF11
     /tmp/ccjx7owg.s:3558   .debug_str:000000000000009f .LASF12
     /tmp/ccjx7owg.s:3536   .debug_str:000000000000000d .LASF13
     /tmp/ccjx7owg.s:3568   .debug_str:000000000000010a .LASF14
GAS LISTING /tmp/ccjx7owg.s 			page 21


     /tmp/ccjx7owg.s:3736   .debug_str:000000000000063a .LASF15
     /tmp/ccjx7owg.s:3580   .debug_str:0000000000000171 .LASF16
     /tmp/ccjx7owg.s:3676   .debug_str:00000000000004c8 .LASF31
     /tmp/ccjx7owg.s:3686   .debug_str:0000000000000514 .LASF20
     /tmp/ccjx7owg.s:3812   .debug_str:0000000000000942 .LASF17
     /tmp/ccjx7owg.s:3800   .debug_str:00000000000008ef .LASF18
     /tmp/ccjx7owg.s:3758   .debug_str:00000000000006f5 .LASF19
     /tmp/ccjx7owg.s:3622   .debug_str:00000000000002e3 .LASF21
     /tmp/ccjx7owg.s:3746   .debug_str:0000000000000689 .LASF22
     /tmp/ccjx7owg.s:3754   .debug_str:00000000000006bc .LASF24
     /tmp/ccjx7owg.s:3720   .debug_str:00000000000005dd .LASF23
     /tmp/ccjx7owg.s:3612   .debug_str:000000000000026f .LASF25
     /tmp/ccjx7owg.s:3662   .debug_str:000000000000043c .LASF26
     /tmp/ccjx7owg.s:3646   .debug_str:0000000000000388 .LASF28
     /tmp/ccjx7owg.s:3780   .debug_str:0000000000000831 .LASF46
     /tmp/ccjx7owg.s:3672   .debug_str:00000000000004a0 .LASF132
     /tmp/ccjx7owg.s:3650   .debug_str:00000000000003c0 .LASF133
     /tmp/ccjx7owg.s:3600   .debug_str:000000000000022b .LASF30
     /tmp/ccjx7owg.s:3598   .debug_str:00000000000001fc .LASF32
     /tmp/ccjx7owg.s:3774   .debug_str:0000000000000817 .LASF27
     /tmp/ccjx7owg.s:3624   .debug_str:00000000000002ed .LASF29
     /tmp/ccjx7owg.s:3590   .debug_str:00000000000001bf .LASF33
     /tmp/ccjx7owg.s:3546   .debug_str:0000000000000047 .LASF34
     /tmp/ccjx7owg.s:3776   .debug_str:000000000000081d .LASF35
     /tmp/ccjx7owg.s:3806   .debug_str:0000000000000917 .LASF36
     /tmp/ccjx7owg.s:3604   .debug_str:0000000000000248 .LASF37
     /tmp/ccjx7owg.s:3542   .debug_str:000000000000002d .LASF134
     /tmp/ccjx7owg.s:3808   .debug_str:0000000000000923 .LASF70
     /tmp/ccjx7owg.s:3532   .debug_str:0000000000000000 .LASF38
     /tmp/ccjx7owg.s:3608   .debug_str:0000000000000257 .LASF39
     /tmp/ccjx7owg.s:3628   .debug_str:0000000000000319 .LASF40
     /tmp/ccjx7owg.s:3642   .debug_str:0000000000000373 .LASF41
     /tmp/ccjx7owg.s:3638   .debug_str:0000000000000365 .LASF42
     /tmp/ccjx7owg.s:3534   .debug_str:0000000000000005 .LASF43
     /tmp/ccjx7owg.s:3652   .debug_str:00000000000003dc .LASF135
     /tmp/ccjx7owg.s:3562   .debug_str:00000000000000c4 .LASF136
     /tmp/ccjx7owg.s:3792   .debug_str:00000000000008af .LASF64
     /tmp/ccjx7owg.s:3630   .debug_str:000000000000031f .LASF66
     /tmp/ccjx7owg.s:3694   .debug_str:000000000000054c .LASF44
     /tmp/ccjx7owg.s:3704   .debug_str:0000000000000587 .LASF45
     /tmp/ccjx7owg.s:3654   .debug_str:00000000000003ea .LASF47
     /tmp/ccjx7owg.s:3666   .debug_str:0000000000000453 .LASF48
     /tmp/ccjx7owg.s:3814   .debug_str:0000000000000947 .LASF49
     /tmp/ccjx7owg.s:3540   .debug_str:0000000000000023 .LASF50
     /tmp/ccjx7owg.s:3708   .debug_str:0000000000000597 .LASF51
     /tmp/ccjx7owg.s:3636   .debug_str:000000000000035a .LASF52
     /tmp/ccjx7owg.s:3656   .debug_str:0000000000000400 .LASF53
     /tmp/ccjx7owg.s:3644   .debug_str:000000000000037b .LASF54
     /tmp/ccjx7owg.s:3668   .debug_str:000000000000045f .LASF55
     /tmp/ccjx7owg.s:3802   .debug_str:00000000000008f4 .LASF69
     /tmp/ccjx7owg.s:3616   .debug_str:000000000000029e .LASF87
     /tmp/ccjx7owg.s:3684   .debug_str:000000000000050b .LASF56
     /tmp/ccjx7owg.s:3602   .debug_str:0000000000000235 .LASF57
     /tmp/ccjx7owg.s:3738   .debug_str:0000000000000650 .LASF58
     /tmp/ccjx7owg.s:3564   .debug_str:00000000000000dd .LASF59
     /tmp/ccjx7owg.s:3594   .debug_str:00000000000001ec .LASF60
     /tmp/ccjx7owg.s:3724   .debug_str:00000000000005eb .LASF61
GAS LISTING /tmp/ccjx7owg.s 			page 22


     /tmp/ccjx7owg.s:3794   .debug_str:00000000000008bd .LASF62
     /tmp/ccjx7owg.s:3550   .debug_str:000000000000005b .LASF63
     /tmp/ccjx7owg.s:3750   .debug_str:00000000000006a2 .LASF65
     /tmp/ccjx7owg.s:3728   .debug_str:000000000000060d .LASF67
     /tmp/ccjx7owg.s:3712   .debug_str:00000000000005b1 .LASF68
     /tmp/ccjx7owg.s:3592   .debug_str:00000000000001d8 .LASF137
     /tmp/ccjx7owg.s:3566   .debug_str:00000000000000f2 .LASF71
     /tmp/ccjx7owg.s:3766   .debug_str:00000000000007d6 .LASF72
     /tmp/ccjx7owg.s:3818   .debug_str:000000000000096a .LASF73
     /tmp/ccjx7owg.s:3772   .debug_str:0000000000000802 .LASF74
     /tmp/ccjx7owg.s:3544   .debug_str:0000000000000035 .LASF75
     /tmp/ccjx7owg.s:3710   .debug_str:00000000000005ab .LASF76
     /tmp/ccjx7owg.s:3606   .debug_str:000000000000024d .LASF138
     /tmp/ccjx7owg.s:3696   .debug_str:0000000000000554 .LASF77
     /tmp/ccjx7owg.s:3748   .debug_str:0000000000000693 .LASF78
     /tmp/ccjx7owg.s:3796   .debug_str:00000000000008ca .LASF79
     /tmp/ccjx7owg.s:3588   .debug_str:00000000000001ae .LASF80
     /tmp/ccjx7owg.s:3674   .debug_str:00000000000004aa .LASF81
     /tmp/ccjx7owg.s:3706   .debug_str:0000000000000592 .LASF82
     /tmp/ccjx7owg.s:3782   .debug_str:000000000000084d .LASF83
     /tmp/ccjx7owg.s:3690   .debug_str:000000000000052b .LASF139
     /tmp/ccjx7owg.s:3732   .debug_str:0000000000000623 .LASF84
     /tmp/ccjx7owg.s:3804   .debug_str:00000000000008ff .LASF85
     /tmp/ccjx7owg.s:3548   .debug_str:0000000000000050 .LASF86
     /tmp/ccjx7owg.s:3648   .debug_str:00000000000003a8 .LASF88
     /tmp/ccjx7owg.s:3734   .debug_str:000000000000062e .LASF89
     /tmp/ccjx7owg.s:3552   .debug_str:0000000000000067 .LASF90
     /tmp/ccjx7owg.s:3718   .debug_str:00000000000005d4 .LASF91
     /tmp/ccjx7owg.s:3560   .debug_str:00000000000000af .LASF92
     /tmp/ccjx7owg.s:3752   .debug_str:00000000000006b2 .LASF93
     /tmp/ccjx7owg.s:3726   .debug_str:00000000000005f7 .LASF94
     /tmp/ccjx7owg.s:3740   .debug_str:0000000000000656 .LASF95
     /tmp/ccjx7owg.s:3620   .debug_str:00000000000002cd .LASF96
     /tmp/ccjx7owg.s:3762   .debug_str:0000000000000707 .LASF97
     /tmp/ccjx7owg.s:3756   .debug_str:00000000000006dd .LASF98
     /tmp/ccjx7owg.s:3576   .debug_str:0000000000000147 .LASF99
     /tmp/ccjx7owg.s:3678   .debug_str:00000000000004d8 .LASF100
     /tmp/ccjx7owg.s:3730   .debug_str:000000000000061a .LASF101
     /tmp/ccjx7owg.s:3790   .debug_str:000000000000089a .LASF102
     /tmp/ccjx7owg.s:3810   .debug_str:000000000000093a .LASF103
     /tmp/ccjx7owg.s:3784   .debug_str:000000000000085e .LASF104
     /tmp/ccjx7owg.s:3798   .debug_str:00000000000008e6 .LASF105
     /tmp/ccjx7owg.s:3570   .debug_str:0000000000000116 .LASF106
     /tmp/ccjx7owg.s:3596   .debug_str:00000000000001f1 .LASF107
     /tmp/ccjx7owg.s:3556   .debug_str:0000000000000087 .LASF108
     /tmp/ccjx7owg.s:3760   .debug_str:00000000000006fa .LASF109
     /tmp/ccjx7owg.s:3658   .debug_str:0000000000000416 .LASF110
     /tmp/ccjx7owg.s:3634   .debug_str:000000000000034e .LASF111
     /tmp/ccjx7owg.s:3618   .debug_str:00000000000002b4 .LASF112
     /tmp/ccjx7owg.s:3688   .debug_str:000000000000051e .LASF113
     /tmp/ccjx7owg.s:3670   .debug_str:0000000000000486 .LASF114
     /tmp/ccjx7owg.s:3640   .debug_str:000000000000036e .LASF115
     /tmp/ccjx7owg.s:3816   .debug_str:000000000000095e .LASF116
     /tmp/ccjx7owg.s:3692   .debug_str:000000000000053b .LASF117
     /tmp/ccjx7owg.s:552    .text:0000000000000308 .LFB42
     /tmp/ccjx7owg.s:614    .text:0000000000000374 .LFE42
     /tmp/ccjx7owg.s:588    .text:0000000000000350 .LBB27
GAS LISTING /tmp/ccjx7owg.s 			page 23


     /tmp/ccjx7owg.s:597    .text:0000000000000358 .LBE27
     /tmp/ccjx7owg.s:3182   .debug_loc:0000000000000000 .LLST19
     /tmp/ccjx7owg.s:3190   .debug_loc:0000000000000024 .LLST20
     /tmp/ccjx7owg.s:574    .text:0000000000000334 .LVL49
     /tmp/ccjx7owg.s:601    .text:0000000000000360 .LVL53
     /tmp/ccjx7owg.s:493    .text:00000000000002b8 .LFB41
     /tmp/ccjx7owg.s:546    .text:0000000000000308 .LFE41
     /tmp/ccjx7owg.s:502    .text:00000000000002c4 .LBB25
     /tmp/ccjx7owg.s:509    .text:00000000000002c8 .LBE25
     /tmp/ccjx7owg.s:3197   .debug_loc:0000000000000047 .LLST18
     /tmp/ccjx7owg.s:524    .text:00000000000002e4 .LVL48
     /tmp/ccjx7owg.s:464    .text:00000000000002b8 .LFE40
     /tmp/ccjx7owg.s:3700   .debug_str:000000000000056d .LASF118
     /tmp/ccjx7owg.s:3204   .debug_loc:000000000000006a .LLST14
     /tmp/ccjx7owg.s:3226   .debug_loc:00000000000000c9 .LLST15
     /tmp/ccjx7owg.s:3255   .debug_loc:000000000000013e .LLST16
     /tmp/ccjx7owg.s:3277   .debug_loc:000000000000019d .LLST17
     /tmp/ccjx7owg.s:391    .text:0000000000000234 .LVL35
     /tmp/ccjx7owg.s:399    .text:000000000000024c .LVL36
     /tmp/ccjx7owg.s:412    .text:0000000000000264 .LVL37
     /tmp/ccjx7owg.s:457    .text:00000000000002ac .LVL44
     /tmp/ccjx7owg.s:461    .text:00000000000002b8 .LVL45
     /tmp/ccjx7owg.s:174    .text:00000000000000fc .LFB39
     /tmp/ccjx7owg.s:217    .text:0000000000000150 .LFE39
     /tmp/ccjx7owg.s:3778   .debug_str:0000000000000826 .LASF119
     /tmp/ccjx7owg.s:3299   .debug_loc:00000000000001fc .LLST7
     /tmp/ccjx7owg.s:3770   .debug_str:00000000000007f7 .LASF120
     /tmp/ccjx7owg.s:3317   .debug_loc:0000000000000248 .LLST8
     /tmp/ccjx7owg.s:192    .text:000000000000011c .LVL15
     /tmp/ccjx7owg.s:199    .text:0000000000000134 .LVL16
     /tmp/ccjx7owg.s:203    .text:000000000000013c .LVL17
     /tmp/ccjx7owg.s:339    .text:00000000000001f4 .LFE38
     /tmp/ccjx7owg.s:3331   .debug_loc:0000000000000281 .LLST9
     /tmp/ccjx7owg.s:245    .text:0000000000000170 .LBB17
     /tmp/ccjx7owg.s:253    .text:0000000000000174 .LBE17
     /tmp/ccjx7owg.s:3342   .debug_loc:00000000000002b7 .LLST10
     /tmp/ccjx7owg.s:257    .text:0000000000000178 .LBB19
     /tmp/ccjx7owg.s:264    .text:000000000000017c .LBE19
     /tmp/ccjx7owg.s:3349   .debug_loc:00000000000002da .LLST11
     /tmp/ccjx7owg.s:272    .text:0000000000000188 .LBB21
     /tmp/ccjx7owg.s:279    .text:000000000000018c .LBE21
     /tmp/ccjx7owg.s:3356   .debug_loc:00000000000002fd .LLST12
     /tmp/ccjx7owg.s:286    .text:0000000000000194 .LBB23
     /tmp/ccjx7owg.s:294    .text:00000000000001a0 .LBE23
     /tmp/ccjx7owg.s:3363   .debug_loc:0000000000000320 .LLST13
     /tmp/ccjx7owg.s:292    .text:00000000000001a0 .LVL26
     /tmp/ccjx7owg.s:299    .text:00000000000001ac .LVL27
     /tmp/ccjx7owg.s:304    .text:00000000000001b4 .LVL28
     /tmp/ccjx7owg.s:312    .text:00000000000001cc .LVL29
     /tmp/ccjx7owg.s:335    .text:00000000000001f0 .LVL32
     /tmp/ccjx7owg.s:142    .text:00000000000000d4 .LFB37
     /tmp/ccjx7owg.s:168    .text:00000000000000fc .LFE37
     /tmp/ccjx7owg.s:3370   .debug_loc:0000000000000343 .LLST6
     /tmp/ccjx7owg.s:157    .text:00000000000000ec .LVL13
     /tmp/ccjx7owg.s:104    .text:00000000000000a4 .LFB36
     /tmp/ccjx7owg.s:136    .text:00000000000000d4 .LFE36
     /tmp/ccjx7owg.s:3384   .debug_loc:000000000000037c .LLST4
GAS LISTING /tmp/ccjx7owg.s 			page 24


     /tmp/ccjx7owg.s:3572   .debug_str:000000000000012b .LASF121
     /tmp/ccjx7owg.s:3404   .debug_loc:00000000000003cb .LLST5
     /tmp/ccjx7owg.s:125    .text:00000000000000c4 .LVL11
     /tmp/ccjx7owg.s:3722   .debug_str:00000000000005e6 .LASF122
     /tmp/ccjx7owg.s:3744   .debug_str:0000000000000672 .LASF140
     /tmp/ccjx7owg.s:10     .text:0000000000000000 .LFB34
     /tmp/ccjx7owg.s:96     .text:00000000000000a4 .LFE34
     /tmp/ccjx7owg.s:3430   .debug_loc:000000000000041f .LLST0
     /tmp/ccjx7owg.s:3452   .debug_loc:000000000000047e .LLST1
     /tmp/ccjx7owg.s:3478   .debug_loc:00000000000004f0 .LLST2
     /tmp/ccjx7owg.s:3503   .debug_loc:0000000000000552 .LLST3
     /tmp/ccjx7owg.s:50     .text:000000000000005c .LVL3
     /tmp/ccjx7owg.s:3716   .debug_str:00000000000005ca .LASF123
     /tmp/ccjx7owg.s:3584   .debug_str:000000000000018d .LASF141
     /tmp/ccjx7owg.s:3582   .debug_str:0000000000000187 .LASF124
     /tmp/ccjx7owg.s:3586   .debug_str:0000000000000199 .LASF142
     /tmp/ccjx7owg.s:3574   .debug_str:0000000000000137 .LASF143
     /tmp/ccjx7owg.s:3626   .debug_str:000000000000030a .LASF125
     /tmp/ccjx7owg.s:3788   .debug_str:0000000000000882 .LASF127
     /tmp/ccjx7owg.s:3538   .debug_str:000000000000001d .LASF126
     /tmp/ccjx7owg.s:3610   .debug_str:000000000000025f .LASF128
     /tmp/ccjx7owg.s:587    .text:0000000000000350 .LVL51
     /tmp/ccjx7owg.s:594    .text:0000000000000358 .LVL52
     /tmp/ccjx7owg.s:501    .text:00000000000002c4 .LVL46
     /tmp/ccjx7owg.s:507    .text:00000000000002c8 .LVL47
     /tmp/ccjx7owg.s:362    .text:00000000000001f4 .LVL33
     /tmp/ccjx7owg.s:388    .text:000000000000022c .LVL34
     /tmp/ccjx7owg.s:431    .text:000000000000027c .LVL39
     /tmp/ccjx7owg.s:441    .text:000000000000028c .LVL42
     /tmp/ccjx7owg.s:428    .text:0000000000000278 .LVL38
     /tmp/ccjx7owg.s:453    .text:00000000000002a0 .LVL43
     /tmp/ccjx7owg.s:434    .text:0000000000000280 .LVL40
     /tmp/ccjx7owg.s:437    .text:0000000000000284 .LVL41
     /tmp/ccjx7owg.s:177    .text:00000000000000fc .LVL14
     /tmp/ccjx7owg.s:212    .text:0000000000000148 .LVL18
     /tmp/ccjx7owg.s:243    .text:0000000000000170 .LVL19
     /tmp/ccjx7owg.s:322    .text:00000000000001d8 .LVL30
     /tmp/ccjx7owg.s:328    .text:00000000000001e4 .LVL31
     /tmp/ccjx7owg.s:251    .text:0000000000000174 .LVL20
     /tmp/ccjx7owg.s:256    .text:0000000000000178 .LVL21
     /tmp/ccjx7owg.s:262    .text:000000000000017c .LVL22
     /tmp/ccjx7owg.s:271    .text:0000000000000188 .LVL23
     /tmp/ccjx7owg.s:277    .text:000000000000018c .LVL24
     /tmp/ccjx7owg.s:285    .text:0000000000000194 .LVL25
     /tmp/ccjx7owg.s:145    .text:00000000000000d4 .LVL12
     /tmp/ccjx7owg.s:107    .text:00000000000000a4 .LVL8
     /tmp/ccjx7owg.s:119    .text:00000000000000b8 .LVL9
     /tmp/ccjx7owg.s:123    .text:00000000000000bc .LVL10
     /tmp/ccjx7owg.s:14     .text:0000000000000000 .LVL0
     /tmp/ccjx7owg.s:48     .text:0000000000000054 .LVL2
     /tmp/ccjx7owg.s:75     .text:0000000000000088 .LVL4
     /tmp/ccjx7owg.s:82     .text:0000000000000094 .LVL6
     /tmp/ccjx7owg.s:78     .text:000000000000008c .LVL5
     /tmp/ccjx7owg.s:89     .text:000000000000009c .LVL7
     /tmp/ccjx7owg.s:35     .text:0000000000000034 .LVL1
     /tmp/ccjx7owg.s:638    .debug_info:0000000000000000 .Ldebug_info0
     /tmp/ccjx7owg.s:342    .gcc_except_table:0000000000000000 .LLSDA38
GAS LISTING /tmp/ccjx7owg.s 			page 25


     /tmp/ccjx7owg.s:466    .gcc_except_table:0000000000000011 .LLSDA40

UNDEFINED SYMBOLS
_Znam
_ZN15MemoryAllocator9mem_allocEm
_ZN15MemoryAllocator8mem_freeEPv
_ZN5Riscv4pushEv
_ZN3TCB13contextSwitchEPNS_7ContextES1_
_ZN5Riscv3popEv
_ZN9Scheduler3getEv
_ZN9Scheduler3putEP3TCB
__gxx_personality_v0
_Unwind_Resume
_Z15thread_dispatchv
_ZN5Riscv10popSppSpieEv
